
/home/luanle/ibex/riscv-compliance/work/rv32i_m/C/cadd-01.elf:     file format elf32-littleriscv


Disassembly of section .text.trap:

00000000 <_trap_start>:
   0:	a829                	j	1a <_trap_exception>
   2:	a81d                	j	38 <_int_exc>
   4:	a815                	j	38 <_int_exc>
   6:	a80d                	j	38 <_int_exc>
   8:	a805                	j	38 <_int_exc>
   a:	a03d                	j	38 <_int_exc>
   c:	a035                	j	38 <_int_exc>
   e:	a02d                	j	38 <_int_exc>
  10:	a025                	j	38 <_int_exc>
  12:	a01d                	j	38 <_int_exc>
  14:	a015                	j	38 <_int_exc>
  16:	a00d                	j	38 <_int_exc>
  18:	a005                	j	38 <_int_exc>

0000001a <_trap_exception>:
  1a:	34202573          	csrr	a0,mcause
  1e:	45ad                	li	a1,11
  20:	00b50763          	beq	a0,a1,2e <_trap_exception+0x14>
  24:	00004597          	auipc	a1,0x4
  28:	fec58593          	addi	a1,a1,-20 # 4010 <begin_signature>
  2c:	c188                	sw	a0,0(a1)
  2e:	00000517          	auipc	a0,0x0
  32:	08450513          	addi	a0,a0,132 # b2 <write_tohost>
  36:	8502                	jr	a0

00000038 <_int_exc>:
  38:	00000517          	auipc	a0,0x0
  3c:	07a50513          	addi	a0,a0,122 # b2 <write_tohost>
  40:	8502                	jr	a0

Disassembly of section .text.init:

00000080 <_start>:
      80:	a835                	j	bc <reset_vector>
      82:	0001                	nop

00000084 <trap_vector>:
      84:	34202f73          	csrr	t5,mcause
      88:	4fa1                	li	t6,8
      8a:	03ff0463          	beq	t5,t6,b2 <write_tohost>
      8e:	4fa5                	li	t6,9
      90:	03ff0163          	beq	t5,t6,b2 <write_tohost>
      94:	4fad                	li	t6,11
      96:	01ff0e63          	beq	t5,t6,b2 <write_tohost>
      9a:	00000f13          	li	t5,0
      9e:	000f0363          	beqz	t5,a4 <trap_vector+0x20>
      a2:	8f02                	jr	t5
      a4:	34202f73          	csrr	t5,mcause
      a8:	000f5363          	bgez	t5,ae <handle_exception>
      ac:	a009                	j	ae <handle_exception>

000000ae <handle_exception>:
      ae:	5391e193          	ori	gp,gp,1337

000000b2 <write_tohost>:
      b2:	00003f17          	auipc	t5,0x3
      b6:	f43f2723          	sw	gp,-178(t5) # 3000 <tohost>
      ba:	bfe5                	j	b2 <write_tohost>

000000bc <reset_vector>:
      bc:	f1402573          	csrr	a0,mhartid
      c0:	e101                	bnez	a0,c0 <reset_vector+0x4>
      c2:	4181                	li	gp,0
      c4:	00000297          	auipc	t0,0x0
      c8:	fc028293          	addi	t0,t0,-64 # 84 <trap_vector>
      cc:	30529073          	csrw	mtvec,t0
      d0:	4505                	li	a0,1
      d2:	057e                	slli	a0,a0,0x1f
      d4:	00054763          	bltz	a0,e2 <offset+0x1a>
      d8:	0ff0000f          	fence
      dc:	4185                	li	gp,1
      de:	00000073          	ecall
      e2:	00000293          	li	t0,0
      e6:	00028d63          	beqz	t0,100 <offset+0x38>
      ea:	10529073          	csrw	stvec,t0
      ee:	62ad                	lui	t0,0xb
      f0:	10928293          	addi	t0,t0,265 # b109 <_end+0x6605>
      f4:	30229073          	csrw	medeleg,t0
      f8:	30202373          	csrr	t1,medeleg
      fc:	fa6299e3          	bne	t0,t1,ae <handle_exception>
     100:	30005073          	csrwi	mstatus,0
     104:	6509                	lui	a0,0x2
     106:	80050513          	addi	a0,a0,-2048 # 1800 <inst_298+0xe>
     10a:	30052073          	csrs	mstatus,a0
     10e:	00000297          	auipc	t0,0x0
     112:	01428293          	addi	t0,t0,20 # 122 <begin_testcode>
     116:	34129073          	csrw	mepc,t0
     11a:	f1402573          	csrr	a0,mhartid
     11e:	30200073          	mret

00000122 <begin_testcode>:
     122:	0001                	nop
     124:	00000013          	nop
     128:	00000013          	nop
     12c:	00000013          	nop
     130:	00000013          	nop
     134:	00000013          	nop
     138:	00000013          	nop
     13c:	00000013          	nop

00000140 <rvtest_init>:
     140:	feedc0b7          	lui	ra,0xfeedc
     144:	ead08093          	addi	ra,ra,-339 # feedbead <_end+0xfeed73a9>
     148:	ff76e137          	lui	sp,0xff76e
     14c:	f5610113          	addi	sp,sp,-170 # ff76df56 <_end+0xff769452>
     150:	7fbb71b7          	lui	gp,0x7fbb7
     154:	fab18193          	addi	gp,gp,-85 # 7fbb6fab <_end+0x7fbb24a7>
     158:	bfddb237          	lui	tp,0xbfddb
     15c:	7d520213          	addi	tp,tp,2005 # bfddb7d5 <_end+0xbfdd6cd1>
     160:	00000297          	auipc	t0,0x0
     164:	0d828293          	addi	t0,t0,216 # 238 <rvtest_code_begin>
     168:	00004317          	auipc	t1,0x4
     16c:	e9830313          	addi	t1,t1,-360 # 4000 <rvtest_data_begin>
     170:	b7fbb3b7          	lui	t2,0xb7fbb
     174:	6fa38393          	addi	t2,t2,1786 # b7fbb6fa <_end+0xb7fb6bf6>
     178:	5bfde437          	lui	s0,0x5bfde
     17c:	b7d40413          	addi	s0,s0,-1155 # 5bfddb7d <_end+0x5bfd9079>
     180:	adfef4b7          	lui	s1,0xadfef
     184:	dbe48493          	addi	s1,s1,-578 # adfeedbe <_end+0xadfea2ba>
     188:	56ff7537          	lui	a0,0x56ff7
     18c:	6df50513          	addi	a0,a0,1759 # 56ff76df <_end+0x56ff2bdb>
     190:	ab7fc5b7          	lui	a1,0xab7fc
     194:	b6f58593          	addi	a1,a1,-1169 # ab7fbb6f <_end+0xab7f706b>
     198:	d5bfe637          	lui	a2,0xd5bfe
     19c:	db760613          	addi	a2,a2,-585 # d5bfddb7 <_end+0xd5bf92b3>
     1a0:	eadff6b7          	lui	a3,0xeadff
     1a4:	edb68693          	addi	a3,a3,-293 # eadfeedb <_end+0xeadfa3d7>
     1a8:	f56ff737          	lui	a4,0xf56ff
     1ac:	76d70713          	addi	a4,a4,1901 # f56ff76d <_end+0xf56fac69>
     1b0:	fab807b7          	lui	a5,0xfab80
     1b4:	bb678793          	addi	a5,a5,-1098 # fab7fbb6 <_end+0xfab7b0b2>
     1b8:	7d5c0837          	lui	a6,0x7d5c0
     1bc:	ddb80813          	addi	a6,a6,-549 # 7d5bfddb <_end+0x7d5bb2d7>
     1c0:	beae08b7          	lui	a7,0xbeae0
     1c4:	eed88893          	addi	a7,a7,-275 # beadfeed <_end+0xbeadb3e9>
     1c8:	df570937          	lui	s2,0xdf570
     1cc:	f7690913          	addi	s2,s2,-138 # df56ff76 <_end+0xdf56b472>
     1d0:	6fab89b7          	lui	s3,0x6fab8
     1d4:	fbb98993          	addi	s3,s3,-69 # 6fab7fbb <_end+0x6fab34b7>
     1d8:	b7d5ca37          	lui	s4,0xb7d5c
     1dc:	fdda0a13          	addi	s4,s4,-35 # b7d5bfdd <_end+0xb7d574d9>
     1e0:	dbeaeab7          	lui	s5,0xdbeae
     1e4:	feea8a93          	addi	s5,s5,-18 # dbeadfee <_end+0xdbea94ea>
     1e8:	6df57b37          	lui	s6,0x6df57
     1ec:	ff7b0b13          	addi	s6,s6,-9 # 6df56ff7 <_end+0x6df524f3>
     1f0:	b6fabbb7          	lui	s7,0xb6fab
     1f4:	7fbb8b93          	addi	s7,s7,2043 # b6fab7fb <_end+0xb6fa6cf7>
     1f8:	db7d6c37          	lui	s8,0xdb7d6
     1fc:	bfdc0c13          	addi	s8,s8,-1027 # db7d5bfd <_end+0xdb7d10f9>
     200:	edbebcb7          	lui	s9,0xedbeb
     204:	dfec8c93          	addi	s9,s9,-514 # edbeadfe <_end+0xedbe62fa>
     208:	76df5d37          	lui	s10,0x76df5
     20c:	6ffd0d13          	addi	s10,s10,1791 # 76df56ff <_end+0x76df0bfb>
     210:	bb6fbdb7          	lui	s11,0xbb6fb
     214:	b7fd8d93          	addi	s11,s11,-1153 # bb6fab7f <_end+0xbb6f607b>
     218:	ddb7de37          	lui	t3,0xddb7d
     21c:	5bfe0e13          	addi	t3,t3,1471 # ddb7d5bf <_end+0xddb78abb>
     220:	eedbfeb7          	lui	t4,0xeedbf
     224:	adfe8e93          	addi	t4,t4,-1313 # eedbeadf <_end+0xeedb9fdb>
     228:	f76dff37          	lui	t5,0xf76df
     22c:	56ff0f13          	addi	t5,t5,1391 # f76df56f <_end+0xf76daa6b>
     230:	fbb70fb7          	lui	t6,0xfbb70
     234:	ab7f8f93          	addi	t6,t6,-1353 # fbb6fab7 <_end+0xfbb6afb3>

00000238 <rvtest_code_begin>:
     238:	00004417          	auipc	s0,0x4
     23c:	dd840413          	addi	s0,s0,-552 # 4010 <begin_signature>

00000240 <inst_0>:
     240:	80000e37          	lui	t3,0x80000
     244:	00000b93          	li	s7,0
     248:	9bf2                	add	s7,s7,t3
     24a:	01742023          	sw	s7,0(s0)

0000024e <inst_1>:
     24e:	000101b7          	lui	gp,0x10
     252:	000101b7          	lui	gp,0x10
     256:	918e                	add	gp,gp,gp
     258:	00342223          	sw	gp,4(s0)

0000025c <inst_2>:
     25c:	80000f37          	lui	t5,0x80000
     260:	ffff0f13          	addi	t5,t5,-1 # 7fffffff <_end+0x7fffb4fb>
     264:	00000793          	li	a5,0
     268:	97fa                	add	a5,a5,t5
     26a:	c41c                	sw	a5,8(s0)

0000026c <inst_3>:
     26c:	00100293          	li	t0,1
     270:	f7f00b13          	li	s6,-129
     274:	9b16                	add	s6,s6,t0
     276:	01642623          	sw	s6,12(s0)

0000027a <inst_4>:
     27a:	400006b7          	lui	a3,0x40000
     27e:	fff68693          	addi	a3,a3,-1 # 3fffffff <_end+0x3fffb4fb>
     282:	800003b7          	lui	t2,0x80000
     286:	93b6                	add	t2,t2,a3
     288:	00742823          	sw	t2,16(s0)

0000028c <inst_5>:
     28c:	ffff5137          	lui	sp,0xffff5
     290:	afd10113          	addi	sp,sp,-1283 # ffff4afd <_end+0xfffefff9>
     294:	00000013          	nop
     298:	900a                	c.add	zero,sp
     29a:	00042a23          	sw	zero,20(s0)

0000029e <inst_6>:
     29e:	ffe000b7          	lui	ra,0xffe00
     2a2:	fff08093          	addi	ra,ra,-1 # ffdfffff <_end+0xffdfb4fb>
     2a6:	00100a13          	li	s4,1
     2aa:	9a06                	add	s4,s4,ra
     2ac:	01442c23          	sw	s4,24(s0)

000002b0 <inst_7>:
     2b0:	00200313          	li	t1,2
     2b4:	40000db7          	lui	s11,0x40000
     2b8:	fffd8d93          	addi	s11,s11,-1 # 3fffffff <_end+0x3fffb4fb>
     2bc:	9d9a                	add	s11,s11,t1
     2be:	01b42e23          	sw	s11,28(s0)

000002c2 <inst_8>:
     2c2:	00400b13          	li	s6,4
     2c6:	33333137          	lui	sp,0x33333
     2ca:	33310113          	addi	sp,sp,819 # 33333333 <_end+0x3332e82f>
     2ce:	915a                	add	sp,sp,s6
     2d0:	02242023          	sw	sp,32(s0)

000002d4 <inst_9>:
     2d4:	00800d93          	li	s11,8
     2d8:	ffa00613          	li	a2,-6
     2dc:	966e                	add	a2,a2,s11
     2de:	d050                	sw	a2,36(s0)

000002e0 <inst_10>:
     2e0:	01000c93          	li	s9,16
     2e4:	ffe00693          	li	a3,-2
     2e8:	96e6                	add	a3,a3,s9
     2ea:	d414                	sw	a3,40(s0)

000002ec <inst_11>:
     2ec:	02000513          	li	a0,32
     2f0:	000805b7          	lui	a1,0x80
     2f4:	95aa                	add	a1,a1,a0
     2f6:	d44c                	sw	a1,44(s0)

000002f8 <inst_12>:
     2f8:	04000793          	li	a5,64
     2fc:	02000837          	lui	a6,0x2000
     300:	983e                	add	a6,a6,a5
     302:	03042823          	sw	a6,48(s0)

00000306 <inst_13>:
     306:	08000813          	li	a6,128
     30a:	04000cb7          	lui	s9,0x4000
     30e:	9cc2                	add	s9,s9,a6
     310:	03942a23          	sw	s9,52(s0)

00000314 <inst_14>:
     314:	10000993          	li	s3,256
     318:	ff800937          	lui	s2,0xff800
     31c:	fff90913          	addi	s2,s2,-1 # ff7fffff <_end+0xff7fb4fb>
     320:	994e                	add	s2,s2,s3
     322:	03242c23          	sw	s2,56(s0)

00000326 <inst_15>:
     326:	20000613          	li	a2,512
     32a:	00200337          	lui	t1,0x200
     32e:	9332                	add	t1,t1,a2
     330:	02642e23          	sw	t1,60(s0)

00000334 <inst_16>:
     334:	40000a13          	li	s4,1024
     338:	00040eb7          	lui	t4,0x40
     33c:	9ed2                	add	t4,t4,s4
     33e:	05d42023          	sw	t4,64(s0)

00000342 <inst_17>:
     342:	00001eb7          	lui	t4,0x1
     346:	800e8e93          	addi	t4,t4,-2048 # 800 <inst_89+0x4>
     34a:	00010d37          	lui	s10,0x10
     34e:	9d76                	add	s10,s10,t4
     350:	05a42223          	sw	s10,68(s0)

00000354 <inst_18>:
     354:	00001937          	lui	s2,0x1
     358:	ffff08b7          	lui	a7,0xffff0
     35c:	fff88893          	addi	a7,a7,-1 # fffeffff <_end+0xfffeb4fb>
     360:	98ca                	add	a7,a7,s2
     362:	05142423          	sw	a7,72(s0)

00000366 <inst_19>:
     366:	000024b7          	lui	s1,0x2
     36a:	ffe00713          	li	a4,-2
     36e:	9726                	add	a4,a4,s1
     370:	c478                	sw	a4,76(s0)

00000372 <inst_20>:
     372:	00004737          	lui	a4,0x4
     376:	00000093          	li	ra,0
     37a:	90ba                	add	ra,ra,a4
     37c:	04142823          	sw	ra,80(s0)

00000380 <inst_21>:
     380:	00008bb7          	lui	s7,0x8
     384:	40000fb7          	lui	t6,0x40000
     388:	ffff8f93          	addi	t6,t6,-1 # 3fffffff <_end+0x3fffb4fb>
     38c:	9fde                	add	t6,t6,s7
     38e:	05f42a23          	sw	t6,84(s0)

00000392 <inst_22>:
     392:	00010d37          	lui	s10,0x10
     396:	ffe00237          	lui	tp,0xffe00
     39a:	fff20213          	addi	tp,tp,-1 # ffdfffff <_end+0xffdfb4fb>
     39e:	926a                	add	tp,tp,s10
     3a0:	04442c23          	sw	tp,88(s0)
     3a4:	00004097          	auipc	ra,0x4
     3a8:	cc808093          	addi	ra,ra,-824 # 406c <signature_x1_0>

000003ac <inst_23>:
     3ac:	00020fb7          	lui	t6,0x20
     3b0:	66666c37          	lui	s8,0x66666
     3b4:	667c0c13          	addi	s8,s8,1639 # 66666667 <_end+0x66661b63>
     3b8:	9c7e                	add	s8,s8,t6
     3ba:	0180a023          	sw	s8,0(ra)

000003be <inst_24>:
     3be:	000405b7          	lui	a1,0x40
     3c2:	040002b7          	lui	t0,0x4000
     3c6:	92ae                	add	t0,t0,a1
     3c8:	0050a223          	sw	t0,4(ra)

000003cc <inst_25>:
     3cc:	000808b7          	lui	a7,0x80
     3d0:	fef00e13          	li	t3,-17
     3d4:	9e46                	add	t3,t3,a7
     3d6:	01c0a423          	sw	t3,8(ra)

000003da <inst_26>:
     3da:	00100237          	lui	tp,0x100
     3de:	fbf00993          	li	s3,-65
     3e2:	9992                	add	s3,s3,tp
     3e4:	0130a623          	sw	s3,12(ra)

000003e8 <inst_27>:
     3e8:	00200c37          	lui	s8,0x200
     3ec:	ff600493          	li	s1,-10
     3f0:	94e2                	add	s1,s1,s8
     3f2:	0090a823          	sw	s1,16(ra)

000003f6 <inst_28>:
     3f6:	00400ab7          	lui	s5,0x400
     3fa:	33333437          	lui	s0,0x33333
     3fe:	33240413          	addi	s0,s0,818 # 33333332 <_end+0x3332e82e>
     402:	9456                	add	s0,s0,s5
     404:	0080aa23          	sw	s0,20(ra)

00000408 <inst_29>:
     408:	008003b7          	lui	t2,0x800
     40c:	aaaabf37          	lui	t5,0xaaaab
     410:	aaaf0f13          	addi	t5,t5,-1366 # aaaaaaaa <_end+0xaaaa5fa6>
     414:	9f1e                	add	t5,t5,t2
     416:	01e0ac23          	sw	t5,24(ra)

0000041a <inst_30>:
     41a:	01000437          	lui	s0,0x1000
     41e:	f8000537          	lui	a0,0xf8000
     422:	fff50513          	addi	a0,a0,-1 # f7ffffff <_end+0xf7ffb4fb>
     426:	9522                	add	a0,a0,s0
     428:	00a0ae23          	sw	a0,28(ra)

0000042c <inst_31>:
     42c:	02000fb7          	lui	t6,0x2000
     430:	00000a93          	li	s5,0
     434:	9afe                	add	s5,s5,t6
     436:	0350a023          	sw	s5,32(ra)

0000043a <inst_32>:
     43a:	040005b7          	lui	a1,0x4000
     43e:	fbf00513          	li	a0,-65
     442:	952e                	add	a0,a0,a1
     444:	02a0a223          	sw	a0,36(ra)

00000448 <inst_33>:
     448:	080005b7          	lui	a1,0x8000
     44c:	ffff8537          	lui	a0,0xffff8
     450:	fff50513          	addi	a0,a0,-1 # ffff7fff <_end+0xffff34fb>
     454:	952e                	add	a0,a0,a1
     456:	02a0a423          	sw	a0,40(ra)

0000045a <inst_34>:
     45a:	100005b7          	lui	a1,0x10000
     45e:	00400513          	li	a0,4
     462:	952e                	add	a0,a0,a1
     464:	02a0a623          	sw	a0,44(ra)

00000468 <inst_35>:
     468:	200005b7          	lui	a1,0x20000
     46c:	ffe00537          	lui	a0,0xffe00
     470:	fff50513          	addi	a0,a0,-1 # ffdfffff <_end+0xffdfb4fb>
     474:	952e                	add	a0,a0,a1
     476:	02a0a823          	sw	a0,48(ra)

0000047a <inst_36>:
     47a:	400005b7          	lui	a1,0x40000
     47e:	00040537          	lui	a0,0x40
     482:	952e                	add	a0,a0,a1
     484:	02a0aa23          	sw	a0,52(ra)

00000488 <inst_37>:
     488:	ffe00593          	li	a1,-2
     48c:	00400513          	li	a0,4
     490:	952e                	add	a0,a0,a1
     492:	02a0ac23          	sw	a0,56(ra)

00000496 <inst_38>:
     496:	ffd00593          	li	a1,-3
     49a:	ffff8537          	lui	a0,0xffff8
     49e:	fff50513          	addi	a0,a0,-1 # ffff7fff <_end+0xffff34fb>
     4a2:	952e                	add	a0,a0,a1
     4a4:	02a0ae23          	sw	a0,60(ra)

000004a8 <inst_39>:
     4a8:	ffb00593          	li	a1,-5
     4ac:	fffff537          	lui	a0,0xfffff
     4b0:	7ff50513          	addi	a0,a0,2047 # fffff7ff <_end+0xffffacfb>
     4b4:	952e                	add	a0,a0,a1
     4b6:	04a0a023          	sw	a0,64(ra)

000004ba <inst_40>:
     4ba:	ff700593          	li	a1,-9
     4be:	00800513          	li	a0,8
     4c2:	952e                	add	a0,a0,a1
     4c4:	04a0a223          	sw	a0,68(ra)

000004c8 <inst_41>:
     4c8:	fef00593          	li	a1,-17
     4cc:	ff800513          	li	a0,-8
     4d0:	952e                	add	a0,a0,a1
     4d2:	04a0a423          	sw	a0,72(ra)

000004d6 <inst_42>:
     4d6:	fdf00593          	li	a1,-33
     4da:	00700513          	li	a0,7
     4de:	952e                	add	a0,a0,a1
     4e0:	04a0a623          	sw	a0,76(ra)

000004e4 <inst_43>:
     4e4:	fbf00593          	li	a1,-65
     4e8:	bff00513          	li	a0,-1025
     4ec:	952e                	add	a0,a0,a1
     4ee:	04a0a823          	sw	a0,80(ra)

000004f2 <inst_44>:
     4f2:	f7f00593          	li	a1,-129
     4f6:	66666537          	lui	a0,0x66666
     4fa:	66750513          	addi	a0,a0,1639 # 66666667 <_end+0x66661b63>
     4fe:	952e                	add	a0,a0,a1
     500:	04a0aa23          	sw	a0,84(ra)

00000504 <inst_45>:
     504:	eff00593          	li	a1,-257
     508:	c0000537          	lui	a0,0xc0000
     50c:	fff50513          	addi	a0,a0,-1 # bfffffff <_end+0xbfffb4fb>
     510:	952e                	add	a0,a0,a1
     512:	04a0ac23          	sw	a0,88(ra)

00000516 <inst_46>:
     516:	dff00593          	li	a1,-513
     51a:	80000537          	lui	a0,0x80000
     51e:	fff50513          	addi	a0,a0,-1 # 7fffffff <_end+0x7fffb4fb>
     522:	952e                	add	a0,a0,a1
     524:	04a0ae23          	sw	a0,92(ra)

00000528 <inst_47>:
     528:	bff00593          	li	a1,-1025
     52c:	00004537          	lui	a0,0x4
     530:	952e                	add	a0,a0,a1
     532:	06a0a023          	sw	a0,96(ra)

00000536 <inst_48>:
     536:	fffff5b7          	lui	a1,0xfffff
     53a:	7ff58593          	addi	a1,a1,2047 # fffff7ff <_end+0xffffacfb>
     53e:	40000537          	lui	a0,0x40000
     542:	fff50513          	addi	a0,a0,-1 # 3fffffff <_end+0x3fffb4fb>
     546:	952e                	add	a0,a0,a1
     548:	06a0a223          	sw	a0,100(ra)

0000054c <inst_49>:
     54c:	fffff5b7          	lui	a1,0xfffff
     550:	fff58593          	addi	a1,a1,-1 # ffffefff <_end+0xffffa4fb>
     554:	dff00513          	li	a0,-513
     558:	952e                	add	a0,a0,a1
     55a:	06a0a423          	sw	a0,104(ra)

0000055e <inst_50>:
     55e:	ffffe5b7          	lui	a1,0xffffe
     562:	fff58593          	addi	a1,a1,-1 # ffffdfff <_end+0xffff94fb>
     566:	00800513          	li	a0,8
     56a:	952e                	add	a0,a0,a1
     56c:	06a0a623          	sw	a0,108(ra)

00000570 <inst_51>:
     570:	ffffc5b7          	lui	a1,0xffffc
     574:	fff58593          	addi	a1,a1,-1 # ffffbfff <_end+0xffff74fb>
     578:	33333537          	lui	a0,0x33333
     57c:	33250513          	addi	a0,a0,818 # 33333332 <_end+0x3332e82e>
     580:	952e                	add	a0,a0,a1
     582:	06a0a823          	sw	a0,112(ra)

00000586 <inst_52>:
     586:	ffff85b7          	lui	a1,0xffff8
     58a:	fff58593          	addi	a1,a1,-1 # ffff7fff <_end+0xffff34fb>
     58e:	ffe00537          	lui	a0,0xffe00
     592:	fff50513          	addi	a0,a0,-1 # ffdfffff <_end+0xffdfb4fb>
     596:	952e                	add	a0,a0,a1
     598:	06a0aa23          	sw	a0,116(ra)

0000059c <inst_53>:
     59c:	ffff05b7          	lui	a1,0xffff0
     5a0:	fff58593          	addi	a1,a1,-1 # fffeffff <_end+0xfffeb4fb>
     5a4:	00001537          	lui	a0,0x1
     5a8:	952e                	add	a0,a0,a1
     5aa:	06a0ac23          	sw	a0,120(ra)

000005ae <inst_54>:
     5ae:	fffe05b7          	lui	a1,0xfffe0
     5b2:	fff58593          	addi	a1,a1,-1 # fffdffff <_end+0xfffdb4fb>
     5b6:	00800537          	lui	a0,0x800
     5ba:	952e                	add	a0,a0,a1
     5bc:	06a0ae23          	sw	a0,124(ra)

000005c0 <inst_55>:
     5c0:	fffc05b7          	lui	a1,0xfffc0
     5c4:	fff58593          	addi	a1,a1,-1 # fffbffff <_end+0xfffbb4fb>
     5c8:	02000513          	li	a0,32
     5cc:	952e                	add	a0,a0,a1
     5ce:	08a0a023          	sw	a0,128(ra)

000005d2 <inst_56>:
     5d2:	fff805b7          	lui	a1,0xfff80
     5d6:	fff58593          	addi	a1,a1,-1 # fff7ffff <_end+0xfff7b4fb>
     5da:	00100537          	lui	a0,0x100
     5de:	952e                	add	a0,a0,a1
     5e0:	08a0a223          	sw	a0,132(ra)

000005e4 <inst_57>:
     5e4:	fff005b7          	lui	a1,0xfff00
     5e8:	fff58593          	addi	a1,a1,-1 # ffefffff <_end+0xffefb4fb>
     5ec:	ffa00513          	li	a0,-6
     5f0:	952e                	add	a0,a0,a1
     5f2:	08a0a423          	sw	a0,136(ra)

000005f6 <inst_58>:
     5f6:	ffc005b7          	lui	a1,0xffc00
     5fa:	fff58593          	addi	a1,a1,-1 # ffbfffff <_end+0xffbfb4fb>
     5fe:	ff700513          	li	a0,-9
     602:	952e                	add	a0,a0,a1
     604:	08a0a623          	sw	a0,140(ra)

00000608 <inst_59>:
     608:	ff8005b7          	lui	a1,0xff800
     60c:	fff58593          	addi	a1,a1,-1 # ff7fffff <_end+0xff7fb4fb>
     610:	00000513          	li	a0,0
     614:	952e                	add	a0,a0,a1
     616:	08a0a823          	sw	a0,144(ra)

0000061a <inst_60>:
     61a:	ff0005b7          	lui	a1,0xff000
     61e:	fff58593          	addi	a1,a1,-1 # feffffff <_end+0xfeffb4fb>
     622:	0000b537          	lui	a0,0xb
     626:	50450513          	addi	a0,a0,1284 # b504 <_end+0x6a00>
     62a:	952e                	add	a0,a0,a1
     62c:	08a0aa23          	sw	a0,148(ra)

00000630 <inst_61>:
     630:	fe0005b7          	lui	a1,0xfe000
     634:	fff58593          	addi	a1,a1,-1 # fdffffff <_end+0xfdffb4fb>
     638:	00000513          	li	a0,0
     63c:	952e                	add	a0,a0,a1
     63e:	08a0ac23          	sw	a0,152(ra)

00000642 <inst_62>:
     642:	fc0005b7          	lui	a1,0xfc000
     646:	fff58593          	addi	a1,a1,-1 # fbffffff <_end+0xfbffb4fb>
     64a:	0000b537          	lui	a0,0xb
     64e:	50450513          	addi	a0,a0,1284 # b504 <_end+0x6a00>
     652:	952e                	add	a0,a0,a1
     654:	08a0ae23          	sw	a0,156(ra)

00000658 <inst_63>:
     658:	f80005b7          	lui	a1,0xf8000
     65c:	fff58593          	addi	a1,a1,-1 # f7ffffff <_end+0xf7ffb4fb>
     660:	ff600513          	li	a0,-10
     664:	952e                	add	a0,a0,a1
     666:	0aa0a023          	sw	a0,160(ra)

0000066a <inst_64>:
     66a:	f00005b7          	lui	a1,0xf0000
     66e:	fff58593          	addi	a1,a1,-1 # efffffff <_end+0xefffb4fb>
     672:	aaaab537          	lui	a0,0xaaaab
     676:	aaa50513          	addi	a0,a0,-1366 # aaaaaaaa <_end+0xaaaa5fa6>
     67a:	952e                	add	a0,a0,a1
     67c:	0aa0a223          	sw	a0,164(ra)

00000680 <inst_65>:
     680:	e00005b7          	lui	a1,0xe0000
     684:	fff58593          	addi	a1,a1,-1 # dfffffff <_end+0xdfffb4fb>
     688:	00500513          	li	a0,5
     68c:	952e                	add	a0,a0,a1
     68e:	0aa0a423          	sw	a0,168(ra)

00000692 <inst_66>:
     692:	c00005b7          	lui	a1,0xc0000
     696:	fff58593          	addi	a1,a1,-1 # bfffffff <_end+0xbfffb4fb>
     69a:	ffa00513          	li	a0,-6
     69e:	952e                	add	a0,a0,a1
     6a0:	0aa0a623          	sw	a0,172(ra)

000006a4 <inst_67>:
     6a4:	555555b7          	lui	a1,0x55555
     6a8:	55558593          	addi	a1,a1,1365 # 55555555 <_end+0x55550a51>
     6ac:	00500513          	li	a0,5
     6b0:	952e                	add	a0,a0,a1
     6b2:	0aa0a823          	sw	a0,176(ra)

000006b6 <inst_68>:
     6b6:	aaaab5b7          	lui	a1,0xaaaab
     6ba:	aaa58593          	addi	a1,a1,-1366 # aaaaaaaa <_end+0xaaaa5fa6>
     6be:	ffff5537          	lui	a0,0xffff5
     6c2:	afc50513          	addi	a0,a0,-1284 # ffff4afc <_end+0xfffefff8>
     6c6:	952e                	add	a0,a0,a1
     6c8:	0aa0aa23          	sw	a0,180(ra)

000006cc <inst_69>:
     6cc:	400005b7          	lui	a1,0x40000
     6d0:	00200513          	li	a0,2
     6d4:	952e                	add	a0,a0,a1
     6d6:	0aa0ac23          	sw	a0,184(ra)

000006da <inst_70>:
     6da:	000405b7          	lui	a1,0x40
     6de:	01000513          	li	a0,16
     6e2:	952e                	add	a0,a0,a1
     6e4:	0aa0ae23          	sw	a0,188(ra)

000006e8 <inst_71>:
     6e8:	ffff85b7          	lui	a1,0xffff8
     6ec:	fff58593          	addi	a1,a1,-1 # ffff7fff <_end+0xffff34fb>
     6f0:	04000513          	li	a0,64
     6f4:	952e                	add	a0,a0,a1
     6f6:	0ca0a023          	sw	a0,192(ra)

000006fa <inst_72>:
     6fa:	fff00593          	li	a1,-1
     6fe:	08000513          	li	a0,128
     702:	952e                	add	a0,a0,a1
     704:	0ca0a223          	sw	a0,196(ra)

00000708 <inst_73>:
     708:	f7f00593          	li	a1,-129
     70c:	10000513          	li	a0,256
     710:	952e                	add	a0,a0,a1
     712:	0ca0a423          	sw	a0,200(ra)

00000716 <inst_74>:
     716:	000045b7          	lui	a1,0x4
     71a:	20000513          	li	a0,512
     71e:	952e                	add	a0,a0,a1
     720:	0ca0a623          	sw	a0,204(ra)

00000724 <inst_75>:
     724:	ffff85b7          	lui	a1,0xffff8
     728:	fff58593          	addi	a1,a1,-1 # ffff7fff <_end+0xffff34fb>
     72c:	40000513          	li	a0,1024
     730:	952e                	add	a0,a0,a1
     732:	0ca0a823          	sw	a0,208(ra)

00000736 <inst_76>:
     736:	bff00593          	li	a1,-1025
     73a:	00001537          	lui	a0,0x1
     73e:	80050513          	addi	a0,a0,-2048 # 800 <inst_89+0x4>
     742:	952e                	add	a0,a0,a1
     744:	0ca0aa23          	sw	a0,212(ra)

00000748 <inst_77>:
     748:	000015b7          	lui	a1,0x1
     74c:	00002537          	lui	a0,0x2
     750:	952e                	add	a0,a0,a1
     752:	0ca0ac23          	sw	a0,216(ra)

00000756 <inst_78>:
     756:	555555b7          	lui	a1,0x55555
     75a:	55458593          	addi	a1,a1,1364 # 55555554 <_end+0x55550a50>
     75e:	00008537          	lui	a0,0x8
     762:	952e                	add	a0,a0,a1
     764:	0ca0ae23          	sw	a0,220(ra)

00000768 <inst_79>:
     768:	333335b7          	lui	a1,0x33333
     76c:	33258593          	addi	a1,a1,818 # 33333332 <_end+0x3332e82e>
     770:	00020537          	lui	a0,0x20
     774:	952e                	add	a0,a0,a1
     776:	0ea0a023          	sw	a0,224(ra)

0000077a <inst_80>:
     77a:	01000593          	li	a1,16
     77e:	00400537          	lui	a0,0x400
     782:	952e                	add	a0,a0,a1
     784:	0ea0a223          	sw	a0,228(ra)

00000788 <inst_81>:
     788:	dff00593          	li	a1,-513
     78c:	01000537          	lui	a0,0x1000
     790:	952e                	add	a0,a0,a1
     792:	0ea0a423          	sw	a0,232(ra)

00000796 <inst_82>:
     796:	ff600593          	li	a1,-10
     79a:	08000537          	lui	a0,0x8000
     79e:	952e                	add	a0,a0,a1
     7a0:	0ea0a623          	sw	a0,236(ra)

000007a4 <inst_83>:
     7a4:	800005b7          	lui	a1,0x80000
     7a8:	10000537          	lui	a0,0x10000
     7ac:	952e                	add	a0,a0,a1
     7ae:	0ea0a823          	sw	a0,240(ra)

000007b2 <inst_84>:
     7b2:	ffb00593          	li	a1,-5
     7b6:	20000537          	lui	a0,0x20000
     7ba:	952e                	add	a0,a0,a1
     7bc:	0ea0aa23          	sw	a0,244(ra)

000007c0 <inst_85>:
     7c0:	02000593          	li	a1,32
     7c4:	40000537          	lui	a0,0x40000
     7c8:	952e                	add	a0,a0,a1
     7ca:	0ea0ac23          	sw	a0,248(ra)

000007ce <inst_86>:
     7ce:	000025b7          	lui	a1,0x2
     7d2:	ffd00513          	li	a0,-3
     7d6:	952e                	add	a0,a0,a1
     7d8:	0ea0ae23          	sw	a0,252(ra)

000007dc <inst_87>:
     7dc:	00200593          	li	a1,2
     7e0:	ffb00513          	li	a0,-5
     7e4:	952e                	add	a0,a0,a1
     7e6:	10a0a023          	sw	a0,256(ra)

000007ea <inst_88>:
     7ea:	800005b7          	lui	a1,0x80000
     7ee:	fff58593          	addi	a1,a1,-1 # 7fffffff <_end+0x7fffb4fb>
     7f2:	fdf00513          	li	a0,-33
     7f6:	952e                	add	a0,a0,a1
     7f8:	10a0a223          	sw	a0,260(ra)

000007fc <inst_89>:
     7fc:	00100593          	li	a1,1
     800:	eff00513          	li	a0,-257
     804:	952e                	add	a0,a0,a1
     806:	10a0a423          	sw	a0,264(ra)

0000080a <inst_90>:
     80a:	40000593          	li	a1,1024
     80e:	fffff537          	lui	a0,0xfffff
     812:	fff50513          	addi	a0,a0,-1 # ffffefff <_end+0xffffa4fb>
     816:	952e                	add	a0,a0,a1
     818:	10a0a623          	sw	a0,268(ra)

0000081c <inst_91>:
     81c:	00000593          	li	a1,0
     820:	ffffe537          	lui	a0,0xffffe
     824:	fff50513          	addi	a0,a0,-1 # ffffdfff <_end+0xffff94fb>
     828:	952e                	add	a0,a0,a1
     82a:	10a0a823          	sw	a0,272(ra)

0000082e <inst_92>:
     82e:	000015b7          	lui	a1,0x1
     832:	ffffc537          	lui	a0,0xffffc
     836:	fff50513          	addi	a0,a0,-1 # ffffbfff <_end+0xffff74fb>
     83a:	952e                	add	a0,a0,a1
     83c:	10a0aa23          	sw	a0,276(ra)

00000840 <inst_93>:
     840:	555555b7          	lui	a1,0x55555
     844:	55658593          	addi	a1,a1,1366 # 55555556 <_end+0x55550a52>
     848:	fffe0537          	lui	a0,0xfffe0
     84c:	fff50513          	addi	a0,a0,-1 # fffdffff <_end+0xfffdb4fb>
     850:	952e                	add	a0,a0,a1
     852:	10a0ac23          	sw	a0,280(ra)

00000856 <inst_94>:
     856:	ffff55b7          	lui	a1,0xffff5
     85a:	afd58593          	addi	a1,a1,-1283 # ffff4afd <_end+0xfffefff9>
     85e:	fffc0537          	lui	a0,0xfffc0
     862:	fff50513          	addi	a0,a0,-1 # fffbffff <_end+0xfffbb4fb>
     866:	952e                	add	a0,a0,a1
     868:	10a0ae23          	sw	a0,284(ra)

0000086c <inst_95>:
     86c:	000405b7          	lui	a1,0x40
     870:	fff80537          	lui	a0,0xfff80
     874:	fff50513          	addi	a0,a0,-1 # fff7ffff <_end+0xfff7b4fb>
     878:	952e                	add	a0,a0,a1
     87a:	12a0a023          	sw	a0,288(ra)

0000087e <inst_96>:
     87e:	040005b7          	lui	a1,0x4000
     882:	fff00537          	lui	a0,0xfff00
     886:	fff50513          	addi	a0,a0,-1 # ffefffff <_end+0xffefb4fb>
     88a:	952e                	add	a0,a0,a1
     88c:	12a0a223          	sw	a0,292(ra)

00000890 <inst_97>:
     890:	20000593          	li	a1,512
     894:	ffc00537          	lui	a0,0xffc00
     898:	fff50513          	addi	a0,a0,-1 # ffbfffff <_end+0xffbfb4fb>
     89c:	952e                	add	a0,a0,a1
     89e:	12a0a423          	sw	a0,296(ra)

000008a2 <inst_98>:
     8a2:	555555b7          	lui	a1,0x55555
     8a6:	55458593          	addi	a1,a1,1364 # 55555554 <_end+0x55550a50>
     8aa:	ff000537          	lui	a0,0xff000
     8ae:	fff50513          	addi	a0,a0,-1 # feffffff <_end+0xfeffb4fb>
     8b2:	952e                	add	a0,a0,a1
     8b4:	12a0a623          	sw	a0,300(ra)

000008b8 <inst_99>:
     8b8:	000405b7          	lui	a1,0x40
     8bc:	fe000537          	lui	a0,0xfe000
     8c0:	fff50513          	addi	a0,a0,-1 # fdffffff <_end+0xfdffb4fb>
     8c4:	952e                	add	a0,a0,a1
     8c6:	12a0a823          	sw	a0,304(ra)

000008ca <inst_100>:
     8ca:	ffffc5b7          	lui	a1,0xffffc
     8ce:	fff58593          	addi	a1,a1,-1 # ffffbfff <_end+0xffff74fb>
     8d2:	fc000537          	lui	a0,0xfc000
     8d6:	fff50513          	addi	a0,a0,-1 # fbffffff <_end+0xfbffb4fb>
     8da:	952e                	add	a0,a0,a1
     8dc:	12a0aa23          	sw	a0,308(ra)

000008e0 <inst_101>:
     8e0:	100005b7          	lui	a1,0x10000
     8e4:	f0000537          	lui	a0,0xf0000
     8e8:	fff50513          	addi	a0,a0,-1 # efffffff <_end+0xefffb4fb>
     8ec:	952e                	add	a0,a0,a1
     8ee:	12a0ac23          	sw	a0,312(ra)

000008f2 <inst_102>:
     8f2:	e00005b7          	lui	a1,0xe0000
     8f6:	fff58593          	addi	a1,a1,-1 # dfffffff <_end+0xdfffb4fb>
     8fa:	e0000537          	lui	a0,0xe0000
     8fe:	fff50513          	addi	a0,a0,-1 # dfffffff <_end+0xdfffb4fb>
     902:	952e                	add	a0,a0,a1
     904:	12a0ae23          	sw	a0,316(ra)

00000908 <inst_103>:
     908:	000085b7          	lui	a1,0x8
     90c:	55555537          	lui	a0,0x55555
     910:	55550513          	addi	a0,a0,1365 # 55555555 <_end+0x55550a51>
     914:	952e                	add	a0,a0,a1
     916:	14a0a023          	sw	a0,320(ra)

0000091a <inst_104>:
     91a:	00300593          	li	a1,3
     91e:	00300513          	li	a0,3
     922:	952e                	add	a0,a0,a1
     924:	14a0a223          	sw	a0,324(ra)

00000928 <inst_105>:
     928:	555555b7          	lui	a1,0x55555
     92c:	55558593          	addi	a1,a1,1365 # 55555555 <_end+0x55550a51>
     930:	00300513          	li	a0,3
     934:	952e                	add	a0,a0,a1
     936:	14a0a423          	sw	a0,328(ra)

0000093a <inst_106>:
     93a:	aaaab5b7          	lui	a1,0xaaaab
     93e:	aaa58593          	addi	a1,a1,-1366 # aaaaaaaa <_end+0xaaaa5fa6>
     942:	00300513          	li	a0,3
     946:	952e                	add	a0,a0,a1
     948:	14a0a623          	sw	a0,332(ra)

0000094c <inst_107>:
     94c:	00500593          	li	a1,5
     950:	00300513          	li	a0,3
     954:	952e                	add	a0,a0,a1
     956:	14a0a823          	sw	a0,336(ra)

0000095a <inst_108>:
     95a:	333335b7          	lui	a1,0x33333
     95e:	33358593          	addi	a1,a1,819 # 33333333 <_end+0x3332e82f>
     962:	00300513          	li	a0,3
     966:	952e                	add	a0,a0,a1
     968:	14a0aa23          	sw	a0,340(ra)

0000096c <inst_109>:
     96c:	666665b7          	lui	a1,0x66666
     970:	66658593          	addi	a1,a1,1638 # 66666666 <_end+0x66661b62>
     974:	00300513          	li	a0,3
     978:	952e                	add	a0,a0,a1
     97a:	14a0ac23          	sw	a0,344(ra)

0000097e <inst_110>:
     97e:	ffff55b7          	lui	a1,0xffff5
     982:	afc58593          	addi	a1,a1,-1284 # ffff4afc <_end+0xfffefff8>
     986:	00300513          	li	a0,3
     98a:	952e                	add	a0,a0,a1
     98c:	14a0ae23          	sw	a0,348(ra)

00000990 <inst_111>:
     990:	0000b5b7          	lui	a1,0xb
     994:	50458593          	addi	a1,a1,1284 # b504 <_end+0x6a00>
     998:	00300513          	li	a0,3
     99c:	952e                	add	a0,a0,a1
     99e:	16a0a023          	sw	a0,352(ra)

000009a2 <inst_112>:
     9a2:	00200593          	li	a1,2
     9a6:	00300513          	li	a0,3
     9aa:	952e                	add	a0,a0,a1
     9ac:	16a0a223          	sw	a0,356(ra)

000009b0 <inst_113>:
     9b0:	555555b7          	lui	a1,0x55555
     9b4:	55458593          	addi	a1,a1,1364 # 55555554 <_end+0x55550a50>
     9b8:	00300513          	li	a0,3
     9bc:	952e                	add	a0,a0,a1
     9be:	16a0a423          	sw	a0,360(ra)

000009c2 <inst_114>:
     9c2:	00000593          	li	a1,0
     9c6:	00300513          	li	a0,3
     9ca:	952e                	add	a0,a0,a1
     9cc:	16a0a623          	sw	a0,364(ra)

000009d0 <inst_115>:
     9d0:	00400593          	li	a1,4
     9d4:	00300513          	li	a0,3
     9d8:	952e                	add	a0,a0,a1
     9da:	16a0a823          	sw	a0,368(ra)

000009de <inst_116>:
     9de:	333335b7          	lui	a1,0x33333
     9e2:	33258593          	addi	a1,a1,818 # 33333332 <_end+0x3332e82e>
     9e6:	00300513          	li	a0,3
     9ea:	952e                	add	a0,a0,a1
     9ec:	16a0aa23          	sw	a0,372(ra)

000009f0 <inst_117>:
     9f0:	666665b7          	lui	a1,0x66666
     9f4:	66558593          	addi	a1,a1,1637 # 66666665 <_end+0x66661b61>
     9f8:	00300513          	li	a0,3
     9fc:	952e                	add	a0,a0,a1
     9fe:	16a0ac23          	sw	a0,376(ra)

00000a02 <inst_118>:
     a02:	0000b5b7          	lui	a1,0xb
     a06:	50358593          	addi	a1,a1,1283 # b503 <_end+0x69ff>
     a0a:	00300513          	li	a0,3
     a0e:	952e                	add	a0,a0,a1
     a10:	16a0ae23          	sw	a0,380(ra)

00000a14 <inst_119>:
     a14:	555555b7          	lui	a1,0x55555
     a18:	55658593          	addi	a1,a1,1366 # 55555556 <_end+0x55550a52>
     a1c:	00300513          	li	a0,3
     a20:	952e                	add	a0,a0,a1
     a22:	18a0a023          	sw	a0,384(ra)

00000a26 <inst_120>:
     a26:	aaaab5b7          	lui	a1,0xaaaab
     a2a:	aab58593          	addi	a1,a1,-1365 # aaaaaaab <_end+0xaaaa5fa7>
     a2e:	00300513          	li	a0,3
     a32:	952e                	add	a0,a0,a1
     a34:	18a0a223          	sw	a0,388(ra)

00000a38 <inst_121>:
     a38:	00600593          	li	a1,6
     a3c:	00300513          	li	a0,3
     a40:	952e                	add	a0,a0,a1
     a42:	18a0a423          	sw	a0,392(ra)

00000a46 <inst_122>:
     a46:	333335b7          	lui	a1,0x33333
     a4a:	33458593          	addi	a1,a1,820 # 33333334 <_end+0x3332e830>
     a4e:	00300513          	li	a0,3
     a52:	952e                	add	a0,a0,a1
     a54:	18a0a623          	sw	a0,396(ra)

00000a58 <inst_123>:
     a58:	666665b7          	lui	a1,0x66666
     a5c:	66758593          	addi	a1,a1,1639 # 66666667 <_end+0x66661b63>
     a60:	00300513          	li	a0,3
     a64:	952e                	add	a0,a0,a1
     a66:	18a0a823          	sw	a0,400(ra)

00000a6a <inst_124>:
     a6a:	ffff55b7          	lui	a1,0xffff5
     a6e:	afd58593          	addi	a1,a1,-1283 # ffff4afd <_end+0xfffefff9>
     a72:	00300513          	li	a0,3
     a76:	952e                	add	a0,a0,a1
     a78:	18a0aa23          	sw	a0,404(ra)

00000a7c <inst_125>:
     a7c:	0000b5b7          	lui	a1,0xb
     a80:	50558593          	addi	a1,a1,1285 # b505 <_end+0x6a01>
     a84:	00300513          	li	a0,3
     a88:	952e                	add	a0,a0,a1
     a8a:	18a0ac23          	sw	a0,408(ra)

00000a8e <inst_126>:
     a8e:	00300593          	li	a1,3
     a92:	55555537          	lui	a0,0x55555
     a96:	55550513          	addi	a0,a0,1365 # 55555555 <_end+0x55550a51>
     a9a:	952e                	add	a0,a0,a1
     a9c:	18a0ae23          	sw	a0,412(ra)

00000aa0 <inst_127>:
     aa0:	555555b7          	lui	a1,0x55555
     aa4:	55558593          	addi	a1,a1,1365 # 55555555 <_end+0x55550a51>
     aa8:	55555537          	lui	a0,0x55555
     aac:	55550513          	addi	a0,a0,1365 # 55555555 <_end+0x55550a51>
     ab0:	952e                	add	a0,a0,a1
     ab2:	1aa0a023          	sw	a0,416(ra)

00000ab6 <inst_128>:
     ab6:	aaaab5b7          	lui	a1,0xaaaab
     aba:	aaa58593          	addi	a1,a1,-1366 # aaaaaaaa <_end+0xaaaa5fa6>
     abe:	55555537          	lui	a0,0x55555
     ac2:	55550513          	addi	a0,a0,1365 # 55555555 <_end+0x55550a51>
     ac6:	952e                	add	a0,a0,a1
     ac8:	1aa0a223          	sw	a0,420(ra)

00000acc <inst_129>:
     acc:	00500593          	li	a1,5
     ad0:	55555537          	lui	a0,0x55555
     ad4:	55550513          	addi	a0,a0,1365 # 55555555 <_end+0x55550a51>
     ad8:	952e                	add	a0,a0,a1
     ada:	1aa0a423          	sw	a0,424(ra)

00000ade <inst_130>:
     ade:	333335b7          	lui	a1,0x33333
     ae2:	33358593          	addi	a1,a1,819 # 33333333 <_end+0x3332e82f>
     ae6:	55555537          	lui	a0,0x55555
     aea:	55550513          	addi	a0,a0,1365 # 55555555 <_end+0x55550a51>
     aee:	952e                	add	a0,a0,a1
     af0:	1aa0a623          	sw	a0,428(ra)

00000af4 <inst_131>:
     af4:	666665b7          	lui	a1,0x66666
     af8:	66658593          	addi	a1,a1,1638 # 66666666 <_end+0x66661b62>
     afc:	55555537          	lui	a0,0x55555
     b00:	55550513          	addi	a0,a0,1365 # 55555555 <_end+0x55550a51>
     b04:	952e                	add	a0,a0,a1
     b06:	1aa0a823          	sw	a0,432(ra)

00000b0a <inst_132>:
     b0a:	ffff55b7          	lui	a1,0xffff5
     b0e:	afc58593          	addi	a1,a1,-1284 # ffff4afc <_end+0xfffefff8>
     b12:	55555537          	lui	a0,0x55555
     b16:	55550513          	addi	a0,a0,1365 # 55555555 <_end+0x55550a51>
     b1a:	952e                	add	a0,a0,a1
     b1c:	1aa0aa23          	sw	a0,436(ra)

00000b20 <inst_133>:
     b20:	0000b5b7          	lui	a1,0xb
     b24:	50458593          	addi	a1,a1,1284 # b504 <_end+0x6a00>
     b28:	55555537          	lui	a0,0x55555
     b2c:	55550513          	addi	a0,a0,1365 # 55555555 <_end+0x55550a51>
     b30:	952e                	add	a0,a0,a1
     b32:	1aa0ac23          	sw	a0,440(ra)

00000b36 <inst_134>:
     b36:	00200593          	li	a1,2
     b3a:	55555537          	lui	a0,0x55555
     b3e:	55550513          	addi	a0,a0,1365 # 55555555 <_end+0x55550a51>
     b42:	952e                	add	a0,a0,a1
     b44:	1aa0ae23          	sw	a0,444(ra)

00000b48 <inst_135>:
     b48:	555555b7          	lui	a1,0x55555
     b4c:	55458593          	addi	a1,a1,1364 # 55555554 <_end+0x55550a50>
     b50:	55555537          	lui	a0,0x55555
     b54:	55550513          	addi	a0,a0,1365 # 55555555 <_end+0x55550a51>
     b58:	952e                	add	a0,a0,a1
     b5a:	1ca0a023          	sw	a0,448(ra)

00000b5e <inst_136>:
     b5e:	00000593          	li	a1,0
     b62:	55555537          	lui	a0,0x55555
     b66:	55550513          	addi	a0,a0,1365 # 55555555 <_end+0x55550a51>
     b6a:	952e                	add	a0,a0,a1
     b6c:	1ca0a223          	sw	a0,452(ra)

00000b70 <inst_137>:
     b70:	00400593          	li	a1,4
     b74:	55555537          	lui	a0,0x55555
     b78:	55550513          	addi	a0,a0,1365 # 55555555 <_end+0x55550a51>
     b7c:	952e                	add	a0,a0,a1
     b7e:	1ca0a423          	sw	a0,456(ra)

00000b82 <inst_138>:
     b82:	333335b7          	lui	a1,0x33333
     b86:	33258593          	addi	a1,a1,818 # 33333332 <_end+0x3332e82e>
     b8a:	55555537          	lui	a0,0x55555
     b8e:	55550513          	addi	a0,a0,1365 # 55555555 <_end+0x55550a51>
     b92:	952e                	add	a0,a0,a1
     b94:	1ca0a623          	sw	a0,460(ra)

00000b98 <inst_139>:
     b98:	666665b7          	lui	a1,0x66666
     b9c:	66558593          	addi	a1,a1,1637 # 66666665 <_end+0x66661b61>
     ba0:	55555537          	lui	a0,0x55555
     ba4:	55550513          	addi	a0,a0,1365 # 55555555 <_end+0x55550a51>
     ba8:	952e                	add	a0,a0,a1
     baa:	1ca0a823          	sw	a0,464(ra)

00000bae <inst_140>:
     bae:	0000b5b7          	lui	a1,0xb
     bb2:	50358593          	addi	a1,a1,1283 # b503 <_end+0x69ff>
     bb6:	55555537          	lui	a0,0x55555
     bba:	55550513          	addi	a0,a0,1365 # 55555555 <_end+0x55550a51>
     bbe:	952e                	add	a0,a0,a1
     bc0:	1ca0aa23          	sw	a0,468(ra)

00000bc4 <inst_141>:
     bc4:	555555b7          	lui	a1,0x55555
     bc8:	55658593          	addi	a1,a1,1366 # 55555556 <_end+0x55550a52>
     bcc:	55555537          	lui	a0,0x55555
     bd0:	55550513          	addi	a0,a0,1365 # 55555555 <_end+0x55550a51>
     bd4:	952e                	add	a0,a0,a1
     bd6:	1ca0ac23          	sw	a0,472(ra)

00000bda <inst_142>:
     bda:	aaaab5b7          	lui	a1,0xaaaab
     bde:	aab58593          	addi	a1,a1,-1365 # aaaaaaab <_end+0xaaaa5fa7>
     be2:	55555537          	lui	a0,0x55555
     be6:	55550513          	addi	a0,a0,1365 # 55555555 <_end+0x55550a51>
     bea:	952e                	add	a0,a0,a1
     bec:	1ca0ae23          	sw	a0,476(ra)

00000bf0 <inst_143>:
     bf0:	00600593          	li	a1,6
     bf4:	55555537          	lui	a0,0x55555
     bf8:	55550513          	addi	a0,a0,1365 # 55555555 <_end+0x55550a51>
     bfc:	952e                	add	a0,a0,a1
     bfe:	1ea0a023          	sw	a0,480(ra)

00000c02 <inst_144>:
     c02:	333335b7          	lui	a1,0x33333
     c06:	33458593          	addi	a1,a1,820 # 33333334 <_end+0x3332e830>
     c0a:	55555537          	lui	a0,0x55555
     c0e:	55550513          	addi	a0,a0,1365 # 55555555 <_end+0x55550a51>
     c12:	952e                	add	a0,a0,a1
     c14:	1ea0a223          	sw	a0,484(ra)

00000c18 <inst_145>:
     c18:	666665b7          	lui	a1,0x66666
     c1c:	66758593          	addi	a1,a1,1639 # 66666667 <_end+0x66661b63>
     c20:	55555537          	lui	a0,0x55555
     c24:	55550513          	addi	a0,a0,1365 # 55555555 <_end+0x55550a51>
     c28:	952e                	add	a0,a0,a1
     c2a:	1ea0a423          	sw	a0,488(ra)

00000c2e <inst_146>:
     c2e:	ffff55b7          	lui	a1,0xffff5
     c32:	afd58593          	addi	a1,a1,-1283 # ffff4afd <_end+0xfffefff9>
     c36:	55555537          	lui	a0,0x55555
     c3a:	55550513          	addi	a0,a0,1365 # 55555555 <_end+0x55550a51>
     c3e:	952e                	add	a0,a0,a1
     c40:	1ea0a623          	sw	a0,492(ra)

00000c44 <inst_147>:
     c44:	0000b5b7          	lui	a1,0xb
     c48:	50558593          	addi	a1,a1,1285 # b505 <_end+0x6a01>
     c4c:	55555537          	lui	a0,0x55555
     c50:	55550513          	addi	a0,a0,1365 # 55555555 <_end+0x55550a51>
     c54:	952e                	add	a0,a0,a1
     c56:	1ea0a823          	sw	a0,496(ra)

00000c5a <inst_148>:
     c5a:	00300593          	li	a1,3
     c5e:	aaaab537          	lui	a0,0xaaaab
     c62:	aaa50513          	addi	a0,a0,-1366 # aaaaaaaa <_end+0xaaaa5fa6>
     c66:	952e                	add	a0,a0,a1
     c68:	1ea0aa23          	sw	a0,500(ra)

00000c6c <inst_149>:
     c6c:	555555b7          	lui	a1,0x55555
     c70:	55558593          	addi	a1,a1,1365 # 55555555 <_end+0x55550a51>
     c74:	aaaab537          	lui	a0,0xaaaab
     c78:	aaa50513          	addi	a0,a0,-1366 # aaaaaaaa <_end+0xaaaa5fa6>
     c7c:	952e                	add	a0,a0,a1
     c7e:	1ea0ac23          	sw	a0,504(ra)

00000c82 <inst_150>:
     c82:	aaaab5b7          	lui	a1,0xaaaab
     c86:	aaa58593          	addi	a1,a1,-1366 # aaaaaaaa <_end+0xaaaa5fa6>
     c8a:	aaaab537          	lui	a0,0xaaaab
     c8e:	aaa50513          	addi	a0,a0,-1366 # aaaaaaaa <_end+0xaaaa5fa6>
     c92:	952e                	add	a0,a0,a1
     c94:	1ea0ae23          	sw	a0,508(ra)

00000c98 <inst_151>:
     c98:	00500593          	li	a1,5
     c9c:	aaaab537          	lui	a0,0xaaaab
     ca0:	aaa50513          	addi	a0,a0,-1366 # aaaaaaaa <_end+0xaaaa5fa6>
     ca4:	952e                	add	a0,a0,a1
     ca6:	20a0a023          	sw	a0,512(ra)

00000caa <inst_152>:
     caa:	333335b7          	lui	a1,0x33333
     cae:	33358593          	addi	a1,a1,819 # 33333333 <_end+0x3332e82f>
     cb2:	aaaab537          	lui	a0,0xaaaab
     cb6:	aaa50513          	addi	a0,a0,-1366 # aaaaaaaa <_end+0xaaaa5fa6>
     cba:	952e                	add	a0,a0,a1
     cbc:	20a0a223          	sw	a0,516(ra)

00000cc0 <inst_153>:
     cc0:	666665b7          	lui	a1,0x66666
     cc4:	66658593          	addi	a1,a1,1638 # 66666666 <_end+0x66661b62>
     cc8:	aaaab537          	lui	a0,0xaaaab
     ccc:	aaa50513          	addi	a0,a0,-1366 # aaaaaaaa <_end+0xaaaa5fa6>
     cd0:	952e                	add	a0,a0,a1
     cd2:	20a0a423          	sw	a0,520(ra)

00000cd6 <inst_154>:
     cd6:	ffff55b7          	lui	a1,0xffff5
     cda:	afc58593          	addi	a1,a1,-1284 # ffff4afc <_end+0xfffefff8>
     cde:	aaaab537          	lui	a0,0xaaaab
     ce2:	aaa50513          	addi	a0,a0,-1366 # aaaaaaaa <_end+0xaaaa5fa6>
     ce6:	952e                	add	a0,a0,a1
     ce8:	20a0a623          	sw	a0,524(ra)

00000cec <inst_155>:
     cec:	0000b5b7          	lui	a1,0xb
     cf0:	50458593          	addi	a1,a1,1284 # b504 <_end+0x6a00>
     cf4:	aaaab537          	lui	a0,0xaaaab
     cf8:	aaa50513          	addi	a0,a0,-1366 # aaaaaaaa <_end+0xaaaa5fa6>
     cfc:	952e                	add	a0,a0,a1
     cfe:	20a0a823          	sw	a0,528(ra)

00000d02 <inst_156>:
     d02:	00200593          	li	a1,2
     d06:	aaaab537          	lui	a0,0xaaaab
     d0a:	aaa50513          	addi	a0,a0,-1366 # aaaaaaaa <_end+0xaaaa5fa6>
     d0e:	952e                	add	a0,a0,a1
     d10:	20a0aa23          	sw	a0,532(ra)

00000d14 <inst_157>:
     d14:	555555b7          	lui	a1,0x55555
     d18:	55458593          	addi	a1,a1,1364 # 55555554 <_end+0x55550a50>
     d1c:	aaaab537          	lui	a0,0xaaaab
     d20:	aaa50513          	addi	a0,a0,-1366 # aaaaaaaa <_end+0xaaaa5fa6>
     d24:	952e                	add	a0,a0,a1
     d26:	20a0ac23          	sw	a0,536(ra)

00000d2a <inst_158>:
     d2a:	00000593          	li	a1,0
     d2e:	aaaab537          	lui	a0,0xaaaab
     d32:	aaa50513          	addi	a0,a0,-1366 # aaaaaaaa <_end+0xaaaa5fa6>
     d36:	952e                	add	a0,a0,a1
     d38:	20a0ae23          	sw	a0,540(ra)

00000d3c <inst_159>:
     d3c:	00400593          	li	a1,4
     d40:	aaaab537          	lui	a0,0xaaaab
     d44:	aaa50513          	addi	a0,a0,-1366 # aaaaaaaa <_end+0xaaaa5fa6>
     d48:	952e                	add	a0,a0,a1
     d4a:	22a0a023          	sw	a0,544(ra)

00000d4e <inst_160>:
     d4e:	333335b7          	lui	a1,0x33333
     d52:	33258593          	addi	a1,a1,818 # 33333332 <_end+0x3332e82e>
     d56:	aaaab537          	lui	a0,0xaaaab
     d5a:	aaa50513          	addi	a0,a0,-1366 # aaaaaaaa <_end+0xaaaa5fa6>
     d5e:	952e                	add	a0,a0,a1
     d60:	22a0a223          	sw	a0,548(ra)

00000d64 <inst_161>:
     d64:	666665b7          	lui	a1,0x66666
     d68:	66558593          	addi	a1,a1,1637 # 66666665 <_end+0x66661b61>
     d6c:	aaaab537          	lui	a0,0xaaaab
     d70:	aaa50513          	addi	a0,a0,-1366 # aaaaaaaa <_end+0xaaaa5fa6>
     d74:	952e                	add	a0,a0,a1
     d76:	22a0a423          	sw	a0,552(ra)

00000d7a <inst_162>:
     d7a:	0000b5b7          	lui	a1,0xb
     d7e:	50358593          	addi	a1,a1,1283 # b503 <_end+0x69ff>
     d82:	aaaab537          	lui	a0,0xaaaab
     d86:	aaa50513          	addi	a0,a0,-1366 # aaaaaaaa <_end+0xaaaa5fa6>
     d8a:	952e                	add	a0,a0,a1
     d8c:	22a0a623          	sw	a0,556(ra)

00000d90 <inst_163>:
     d90:	555555b7          	lui	a1,0x55555
     d94:	55658593          	addi	a1,a1,1366 # 55555556 <_end+0x55550a52>
     d98:	aaaab537          	lui	a0,0xaaaab
     d9c:	aaa50513          	addi	a0,a0,-1366 # aaaaaaaa <_end+0xaaaa5fa6>
     da0:	952e                	add	a0,a0,a1
     da2:	22a0a823          	sw	a0,560(ra)

00000da6 <inst_164>:
     da6:	aaaab5b7          	lui	a1,0xaaaab
     daa:	aab58593          	addi	a1,a1,-1365 # aaaaaaab <_end+0xaaaa5fa7>
     dae:	aaaab537          	lui	a0,0xaaaab
     db2:	aaa50513          	addi	a0,a0,-1366 # aaaaaaaa <_end+0xaaaa5fa6>
     db6:	952e                	add	a0,a0,a1
     db8:	22a0aa23          	sw	a0,564(ra)

00000dbc <inst_165>:
     dbc:	00600593          	li	a1,6
     dc0:	aaaab537          	lui	a0,0xaaaab
     dc4:	aaa50513          	addi	a0,a0,-1366 # aaaaaaaa <_end+0xaaaa5fa6>
     dc8:	952e                	add	a0,a0,a1
     dca:	22a0ac23          	sw	a0,568(ra)

00000dce <inst_166>:
     dce:	333335b7          	lui	a1,0x33333
     dd2:	33458593          	addi	a1,a1,820 # 33333334 <_end+0x3332e830>
     dd6:	aaaab537          	lui	a0,0xaaaab
     dda:	aaa50513          	addi	a0,a0,-1366 # aaaaaaaa <_end+0xaaaa5fa6>
     dde:	952e                	add	a0,a0,a1
     de0:	22a0ae23          	sw	a0,572(ra)

00000de4 <inst_167>:
     de4:	666665b7          	lui	a1,0x66666
     de8:	66758593          	addi	a1,a1,1639 # 66666667 <_end+0x66661b63>
     dec:	aaaab537          	lui	a0,0xaaaab
     df0:	aaa50513          	addi	a0,a0,-1366 # aaaaaaaa <_end+0xaaaa5fa6>
     df4:	952e                	add	a0,a0,a1
     df6:	24a0a023          	sw	a0,576(ra)

00000dfa <inst_168>:
     dfa:	ffff55b7          	lui	a1,0xffff5
     dfe:	afd58593          	addi	a1,a1,-1283 # ffff4afd <_end+0xfffefff9>
     e02:	aaaab537          	lui	a0,0xaaaab
     e06:	aaa50513          	addi	a0,a0,-1366 # aaaaaaaa <_end+0xaaaa5fa6>
     e0a:	952e                	add	a0,a0,a1
     e0c:	24a0a223          	sw	a0,580(ra)

00000e10 <inst_169>:
     e10:	0000b5b7          	lui	a1,0xb
     e14:	50558593          	addi	a1,a1,1285 # b505 <_end+0x6a01>
     e18:	aaaab537          	lui	a0,0xaaaab
     e1c:	aaa50513          	addi	a0,a0,-1366 # aaaaaaaa <_end+0xaaaa5fa6>
     e20:	952e                	add	a0,a0,a1
     e22:	24a0a423          	sw	a0,584(ra)

00000e26 <inst_170>:
     e26:	00300593          	li	a1,3
     e2a:	00500513          	li	a0,5
     e2e:	952e                	add	a0,a0,a1
     e30:	24a0a623          	sw	a0,588(ra)

00000e34 <inst_171>:
     e34:	aaaab5b7          	lui	a1,0xaaaab
     e38:	aaa58593          	addi	a1,a1,-1366 # aaaaaaaa <_end+0xaaaa5fa6>
     e3c:	00500513          	li	a0,5
     e40:	952e                	add	a0,a0,a1
     e42:	24a0a823          	sw	a0,592(ra)

00000e46 <inst_172>:
     e46:	00500593          	li	a1,5
     e4a:	00500513          	li	a0,5
     e4e:	952e                	add	a0,a0,a1
     e50:	24a0aa23          	sw	a0,596(ra)

00000e54 <inst_173>:
     e54:	333335b7          	lui	a1,0x33333
     e58:	33358593          	addi	a1,a1,819 # 33333333 <_end+0x3332e82f>
     e5c:	00500513          	li	a0,5
     e60:	952e                	add	a0,a0,a1
     e62:	24a0ac23          	sw	a0,600(ra)

00000e66 <inst_174>:
     e66:	666665b7          	lui	a1,0x66666
     e6a:	66658593          	addi	a1,a1,1638 # 66666666 <_end+0x66661b62>
     e6e:	00500513          	li	a0,5
     e72:	952e                	add	a0,a0,a1
     e74:	24a0ae23          	sw	a0,604(ra)

00000e78 <inst_175>:
     e78:	ffff55b7          	lui	a1,0xffff5
     e7c:	afc58593          	addi	a1,a1,-1284 # ffff4afc <_end+0xfffefff8>
     e80:	00500513          	li	a0,5
     e84:	952e                	add	a0,a0,a1
     e86:	26a0a023          	sw	a0,608(ra)

00000e8a <inst_176>:
     e8a:	0000b5b7          	lui	a1,0xb
     e8e:	50458593          	addi	a1,a1,1284 # b504 <_end+0x6a00>
     e92:	00500513          	li	a0,5
     e96:	952e                	add	a0,a0,a1
     e98:	26a0a223          	sw	a0,612(ra)

00000e9c <inst_177>:
     e9c:	00200593          	li	a1,2
     ea0:	00500513          	li	a0,5
     ea4:	952e                	add	a0,a0,a1
     ea6:	26a0a423          	sw	a0,616(ra)

00000eaa <inst_178>:
     eaa:	555555b7          	lui	a1,0x55555
     eae:	55458593          	addi	a1,a1,1364 # 55555554 <_end+0x55550a50>
     eb2:	00500513          	li	a0,5
     eb6:	952e                	add	a0,a0,a1
     eb8:	26a0a623          	sw	a0,620(ra)

00000ebc <inst_179>:
     ebc:	00000593          	li	a1,0
     ec0:	00500513          	li	a0,5
     ec4:	952e                	add	a0,a0,a1
     ec6:	26a0a823          	sw	a0,624(ra)

00000eca <inst_180>:
     eca:	00400593          	li	a1,4
     ece:	00500513          	li	a0,5
     ed2:	952e                	add	a0,a0,a1
     ed4:	26a0aa23          	sw	a0,628(ra)

00000ed8 <inst_181>:
     ed8:	333335b7          	lui	a1,0x33333
     edc:	33258593          	addi	a1,a1,818 # 33333332 <_end+0x3332e82e>
     ee0:	00500513          	li	a0,5
     ee4:	952e                	add	a0,a0,a1
     ee6:	26a0ac23          	sw	a0,632(ra)

00000eea <inst_182>:
     eea:	666665b7          	lui	a1,0x66666
     eee:	66558593          	addi	a1,a1,1637 # 66666665 <_end+0x66661b61>
     ef2:	00500513          	li	a0,5
     ef6:	952e                	add	a0,a0,a1
     ef8:	26a0ae23          	sw	a0,636(ra)

00000efc <inst_183>:
     efc:	0000b5b7          	lui	a1,0xb
     f00:	50358593          	addi	a1,a1,1283 # b503 <_end+0x69ff>
     f04:	00500513          	li	a0,5
     f08:	952e                	add	a0,a0,a1
     f0a:	28a0a023          	sw	a0,640(ra)

00000f0e <inst_184>:
     f0e:	555555b7          	lui	a1,0x55555
     f12:	55658593          	addi	a1,a1,1366 # 55555556 <_end+0x55550a52>
     f16:	00500513          	li	a0,5
     f1a:	952e                	add	a0,a0,a1
     f1c:	28a0a223          	sw	a0,644(ra)

00000f20 <inst_185>:
     f20:	aaaab5b7          	lui	a1,0xaaaab
     f24:	aab58593          	addi	a1,a1,-1365 # aaaaaaab <_end+0xaaaa5fa7>
     f28:	00500513          	li	a0,5
     f2c:	952e                	add	a0,a0,a1
     f2e:	28a0a423          	sw	a0,648(ra)

00000f32 <inst_186>:
     f32:	00600593          	li	a1,6
     f36:	00500513          	li	a0,5
     f3a:	952e                	add	a0,a0,a1
     f3c:	28a0a623          	sw	a0,652(ra)

00000f40 <inst_187>:
     f40:	333335b7          	lui	a1,0x33333
     f44:	33458593          	addi	a1,a1,820 # 33333334 <_end+0x3332e830>
     f48:	00500513          	li	a0,5
     f4c:	952e                	add	a0,a0,a1
     f4e:	28a0a823          	sw	a0,656(ra)

00000f52 <inst_188>:
     f52:	666665b7          	lui	a1,0x66666
     f56:	66758593          	addi	a1,a1,1639 # 66666667 <_end+0x66661b63>
     f5a:	00500513          	li	a0,5
     f5e:	952e                	add	a0,a0,a1
     f60:	28a0aa23          	sw	a0,660(ra)

00000f64 <inst_189>:
     f64:	ffff55b7          	lui	a1,0xffff5
     f68:	afd58593          	addi	a1,a1,-1283 # ffff4afd <_end+0xfffefff9>
     f6c:	00500513          	li	a0,5
     f70:	952e                	add	a0,a0,a1
     f72:	28a0ac23          	sw	a0,664(ra)

00000f76 <inst_190>:
     f76:	0000b5b7          	lui	a1,0xb
     f7a:	50558593          	addi	a1,a1,1285 # b505 <_end+0x6a01>
     f7e:	00500513          	li	a0,5
     f82:	952e                	add	a0,a0,a1
     f84:	28a0ae23          	sw	a0,668(ra)

00000f88 <inst_191>:
     f88:	00300593          	li	a1,3
     f8c:	33333537          	lui	a0,0x33333
     f90:	33350513          	addi	a0,a0,819 # 33333333 <_end+0x3332e82f>
     f94:	952e                	add	a0,a0,a1
     f96:	2aa0a023          	sw	a0,672(ra)

00000f9a <inst_192>:
     f9a:	555555b7          	lui	a1,0x55555
     f9e:	55558593          	addi	a1,a1,1365 # 55555555 <_end+0x55550a51>
     fa2:	33333537          	lui	a0,0x33333
     fa6:	33350513          	addi	a0,a0,819 # 33333333 <_end+0x3332e82f>
     faa:	952e                	add	a0,a0,a1
     fac:	2aa0a223          	sw	a0,676(ra)

00000fb0 <inst_193>:
     fb0:	aaaab5b7          	lui	a1,0xaaaab
     fb4:	aaa58593          	addi	a1,a1,-1366 # aaaaaaaa <_end+0xaaaa5fa6>
     fb8:	33333537          	lui	a0,0x33333
     fbc:	33350513          	addi	a0,a0,819 # 33333333 <_end+0x3332e82f>
     fc0:	952e                	add	a0,a0,a1
     fc2:	2aa0a423          	sw	a0,680(ra)

00000fc6 <inst_194>:
     fc6:	00500593          	li	a1,5
     fca:	33333537          	lui	a0,0x33333
     fce:	33350513          	addi	a0,a0,819 # 33333333 <_end+0x3332e82f>
     fd2:	952e                	add	a0,a0,a1
     fd4:	2aa0a623          	sw	a0,684(ra)

00000fd8 <inst_195>:
     fd8:	333335b7          	lui	a1,0x33333
     fdc:	33358593          	addi	a1,a1,819 # 33333333 <_end+0x3332e82f>
     fe0:	33333537          	lui	a0,0x33333
     fe4:	33350513          	addi	a0,a0,819 # 33333333 <_end+0x3332e82f>
     fe8:	952e                	add	a0,a0,a1
     fea:	2aa0a823          	sw	a0,688(ra)

00000fee <inst_196>:
     fee:	666665b7          	lui	a1,0x66666
     ff2:	66658593          	addi	a1,a1,1638 # 66666666 <_end+0x66661b62>
     ff6:	33333537          	lui	a0,0x33333
     ffa:	33350513          	addi	a0,a0,819 # 33333333 <_end+0x3332e82f>
     ffe:	952e                	add	a0,a0,a1
    1000:	2aa0aa23          	sw	a0,692(ra)

00001004 <inst_197>:
    1004:	ffff55b7          	lui	a1,0xffff5
    1008:	afc58593          	addi	a1,a1,-1284 # ffff4afc <_end+0xfffefff8>
    100c:	33333537          	lui	a0,0x33333
    1010:	33350513          	addi	a0,a0,819 # 33333333 <_end+0x3332e82f>
    1014:	952e                	add	a0,a0,a1
    1016:	2aa0ac23          	sw	a0,696(ra)

0000101a <inst_198>:
    101a:	0000b5b7          	lui	a1,0xb
    101e:	50458593          	addi	a1,a1,1284 # b504 <_end+0x6a00>
    1022:	33333537          	lui	a0,0x33333
    1026:	33350513          	addi	a0,a0,819 # 33333333 <_end+0x3332e82f>
    102a:	952e                	add	a0,a0,a1
    102c:	2aa0ae23          	sw	a0,700(ra)

00001030 <inst_199>:
    1030:	00200593          	li	a1,2
    1034:	33333537          	lui	a0,0x33333
    1038:	33350513          	addi	a0,a0,819 # 33333333 <_end+0x3332e82f>
    103c:	952e                	add	a0,a0,a1
    103e:	2ca0a023          	sw	a0,704(ra)

00001042 <inst_200>:
    1042:	555555b7          	lui	a1,0x55555
    1046:	55458593          	addi	a1,a1,1364 # 55555554 <_end+0x55550a50>
    104a:	33333537          	lui	a0,0x33333
    104e:	33350513          	addi	a0,a0,819 # 33333333 <_end+0x3332e82f>
    1052:	952e                	add	a0,a0,a1
    1054:	2ca0a223          	sw	a0,708(ra)

00001058 <inst_201>:
    1058:	00000593          	li	a1,0
    105c:	33333537          	lui	a0,0x33333
    1060:	33350513          	addi	a0,a0,819 # 33333333 <_end+0x3332e82f>
    1064:	952e                	add	a0,a0,a1
    1066:	2ca0a423          	sw	a0,712(ra)

0000106a <inst_202>:
    106a:	333335b7          	lui	a1,0x33333
    106e:	33258593          	addi	a1,a1,818 # 33333332 <_end+0x3332e82e>
    1072:	33333537          	lui	a0,0x33333
    1076:	33350513          	addi	a0,a0,819 # 33333333 <_end+0x3332e82f>
    107a:	952e                	add	a0,a0,a1
    107c:	2ca0a623          	sw	a0,716(ra)

00001080 <inst_203>:
    1080:	666665b7          	lui	a1,0x66666
    1084:	66558593          	addi	a1,a1,1637 # 66666665 <_end+0x66661b61>
    1088:	33333537          	lui	a0,0x33333
    108c:	33350513          	addi	a0,a0,819 # 33333333 <_end+0x3332e82f>
    1090:	952e                	add	a0,a0,a1
    1092:	2ca0a823          	sw	a0,720(ra)

00001096 <inst_204>:
    1096:	0000b5b7          	lui	a1,0xb
    109a:	50358593          	addi	a1,a1,1283 # b503 <_end+0x69ff>
    109e:	33333537          	lui	a0,0x33333
    10a2:	33350513          	addi	a0,a0,819 # 33333333 <_end+0x3332e82f>
    10a6:	952e                	add	a0,a0,a1
    10a8:	2ca0aa23          	sw	a0,724(ra)

000010ac <inst_205>:
    10ac:	555555b7          	lui	a1,0x55555
    10b0:	55658593          	addi	a1,a1,1366 # 55555556 <_end+0x55550a52>
    10b4:	33333537          	lui	a0,0x33333
    10b8:	33350513          	addi	a0,a0,819 # 33333333 <_end+0x3332e82f>
    10bc:	952e                	add	a0,a0,a1
    10be:	2ca0ac23          	sw	a0,728(ra)

000010c2 <inst_206>:
    10c2:	aaaab5b7          	lui	a1,0xaaaab
    10c6:	aab58593          	addi	a1,a1,-1365 # aaaaaaab <_end+0xaaaa5fa7>
    10ca:	33333537          	lui	a0,0x33333
    10ce:	33350513          	addi	a0,a0,819 # 33333333 <_end+0x3332e82f>
    10d2:	952e                	add	a0,a0,a1
    10d4:	2ca0ae23          	sw	a0,732(ra)

000010d8 <inst_207>:
    10d8:	00600593          	li	a1,6
    10dc:	33333537          	lui	a0,0x33333
    10e0:	33350513          	addi	a0,a0,819 # 33333333 <_end+0x3332e82f>
    10e4:	952e                	add	a0,a0,a1
    10e6:	2ea0a023          	sw	a0,736(ra)

000010ea <inst_208>:
    10ea:	333335b7          	lui	a1,0x33333
    10ee:	33458593          	addi	a1,a1,820 # 33333334 <_end+0x3332e830>
    10f2:	33333537          	lui	a0,0x33333
    10f6:	33350513          	addi	a0,a0,819 # 33333333 <_end+0x3332e82f>
    10fa:	952e                	add	a0,a0,a1
    10fc:	2ea0a223          	sw	a0,740(ra)

00001100 <inst_209>:
    1100:	666665b7          	lui	a1,0x66666
    1104:	66758593          	addi	a1,a1,1639 # 66666667 <_end+0x66661b63>
    1108:	33333537          	lui	a0,0x33333
    110c:	33350513          	addi	a0,a0,819 # 33333333 <_end+0x3332e82f>
    1110:	952e                	add	a0,a0,a1
    1112:	2ea0a423          	sw	a0,744(ra)

00001116 <inst_210>:
    1116:	ffff55b7          	lui	a1,0xffff5
    111a:	afd58593          	addi	a1,a1,-1283 # ffff4afd <_end+0xfffefff9>
    111e:	33333537          	lui	a0,0x33333
    1122:	33350513          	addi	a0,a0,819 # 33333333 <_end+0x3332e82f>
    1126:	952e                	add	a0,a0,a1
    1128:	2ea0a623          	sw	a0,748(ra)

0000112c <inst_211>:
    112c:	0000b5b7          	lui	a1,0xb
    1130:	50558593          	addi	a1,a1,1285 # b505 <_end+0x6a01>
    1134:	33333537          	lui	a0,0x33333
    1138:	33350513          	addi	a0,a0,819 # 33333333 <_end+0x3332e82f>
    113c:	952e                	add	a0,a0,a1
    113e:	2ea0a823          	sw	a0,752(ra)

00001142 <inst_212>:
    1142:	00300593          	li	a1,3
    1146:	66666537          	lui	a0,0x66666
    114a:	66650513          	addi	a0,a0,1638 # 66666666 <_end+0x66661b62>
    114e:	952e                	add	a0,a0,a1
    1150:	2ea0aa23          	sw	a0,756(ra)

00001154 <inst_213>:
    1154:	555555b7          	lui	a1,0x55555
    1158:	55558593          	addi	a1,a1,1365 # 55555555 <_end+0x55550a51>
    115c:	66666537          	lui	a0,0x66666
    1160:	66650513          	addi	a0,a0,1638 # 66666666 <_end+0x66661b62>
    1164:	952e                	add	a0,a0,a1
    1166:	2ea0ac23          	sw	a0,760(ra)

0000116a <inst_214>:
    116a:	aaaab5b7          	lui	a1,0xaaaab
    116e:	aaa58593          	addi	a1,a1,-1366 # aaaaaaaa <_end+0xaaaa5fa6>
    1172:	66666537          	lui	a0,0x66666
    1176:	66650513          	addi	a0,a0,1638 # 66666666 <_end+0x66661b62>
    117a:	952e                	add	a0,a0,a1
    117c:	2ea0ae23          	sw	a0,764(ra)

00001180 <inst_215>:
    1180:	00500593          	li	a1,5
    1184:	66666537          	lui	a0,0x66666
    1188:	66650513          	addi	a0,a0,1638 # 66666666 <_end+0x66661b62>
    118c:	952e                	add	a0,a0,a1
    118e:	30a0a023          	sw	a0,768(ra)

00001192 <inst_216>:
    1192:	333335b7          	lui	a1,0x33333
    1196:	33358593          	addi	a1,a1,819 # 33333333 <_end+0x3332e82f>
    119a:	66666537          	lui	a0,0x66666
    119e:	66650513          	addi	a0,a0,1638 # 66666666 <_end+0x66661b62>
    11a2:	952e                	add	a0,a0,a1
    11a4:	30a0a223          	sw	a0,772(ra)

000011a8 <inst_217>:
    11a8:	666665b7          	lui	a1,0x66666
    11ac:	66658593          	addi	a1,a1,1638 # 66666666 <_end+0x66661b62>
    11b0:	66666537          	lui	a0,0x66666
    11b4:	66650513          	addi	a0,a0,1638 # 66666666 <_end+0x66661b62>
    11b8:	952e                	add	a0,a0,a1
    11ba:	30a0a423          	sw	a0,776(ra)

000011be <inst_218>:
    11be:	ffff55b7          	lui	a1,0xffff5
    11c2:	afc58593          	addi	a1,a1,-1284 # ffff4afc <_end+0xfffefff8>
    11c6:	66666537          	lui	a0,0x66666
    11ca:	66650513          	addi	a0,a0,1638 # 66666666 <_end+0x66661b62>
    11ce:	952e                	add	a0,a0,a1
    11d0:	30a0a623          	sw	a0,780(ra)

000011d4 <inst_219>:
    11d4:	0000b5b7          	lui	a1,0xb
    11d8:	50458593          	addi	a1,a1,1284 # b504 <_end+0x6a00>
    11dc:	66666537          	lui	a0,0x66666
    11e0:	66650513          	addi	a0,a0,1638 # 66666666 <_end+0x66661b62>
    11e4:	952e                	add	a0,a0,a1
    11e6:	30a0a823          	sw	a0,784(ra)

000011ea <inst_220>:
    11ea:	00200593          	li	a1,2
    11ee:	66666537          	lui	a0,0x66666
    11f2:	66650513          	addi	a0,a0,1638 # 66666666 <_end+0x66661b62>
    11f6:	952e                	add	a0,a0,a1
    11f8:	30a0aa23          	sw	a0,788(ra)

000011fc <inst_221>:
    11fc:	555555b7          	lui	a1,0x55555
    1200:	55458593          	addi	a1,a1,1364 # 55555554 <_end+0x55550a50>
    1204:	66666537          	lui	a0,0x66666
    1208:	66650513          	addi	a0,a0,1638 # 66666666 <_end+0x66661b62>
    120c:	952e                	add	a0,a0,a1
    120e:	30a0ac23          	sw	a0,792(ra)

00001212 <inst_222>:
    1212:	00000593          	li	a1,0
    1216:	66666537          	lui	a0,0x66666
    121a:	66650513          	addi	a0,a0,1638 # 66666666 <_end+0x66661b62>
    121e:	952e                	add	a0,a0,a1
    1220:	30a0ae23          	sw	a0,796(ra)

00001224 <inst_223>:
    1224:	00400593          	li	a1,4
    1228:	66666537          	lui	a0,0x66666
    122c:	66650513          	addi	a0,a0,1638 # 66666666 <_end+0x66661b62>
    1230:	952e                	add	a0,a0,a1
    1232:	32a0a023          	sw	a0,800(ra)

00001236 <inst_224>:
    1236:	333335b7          	lui	a1,0x33333
    123a:	33258593          	addi	a1,a1,818 # 33333332 <_end+0x3332e82e>
    123e:	66666537          	lui	a0,0x66666
    1242:	66650513          	addi	a0,a0,1638 # 66666666 <_end+0x66661b62>
    1246:	952e                	add	a0,a0,a1
    1248:	32a0a223          	sw	a0,804(ra)

0000124c <inst_225>:
    124c:	666665b7          	lui	a1,0x66666
    1250:	66558593          	addi	a1,a1,1637 # 66666665 <_end+0x66661b61>
    1254:	66666537          	lui	a0,0x66666
    1258:	66650513          	addi	a0,a0,1638 # 66666666 <_end+0x66661b62>
    125c:	952e                	add	a0,a0,a1
    125e:	32a0a423          	sw	a0,808(ra)

00001262 <inst_226>:
    1262:	0000b5b7          	lui	a1,0xb
    1266:	50358593          	addi	a1,a1,1283 # b503 <_end+0x69ff>
    126a:	66666537          	lui	a0,0x66666
    126e:	66650513          	addi	a0,a0,1638 # 66666666 <_end+0x66661b62>
    1272:	952e                	add	a0,a0,a1
    1274:	32a0a623          	sw	a0,812(ra)

00001278 <inst_227>:
    1278:	555555b7          	lui	a1,0x55555
    127c:	55658593          	addi	a1,a1,1366 # 55555556 <_end+0x55550a52>
    1280:	66666537          	lui	a0,0x66666
    1284:	66650513          	addi	a0,a0,1638 # 66666666 <_end+0x66661b62>
    1288:	952e                	add	a0,a0,a1
    128a:	32a0a823          	sw	a0,816(ra)

0000128e <inst_228>:
    128e:	aaaab5b7          	lui	a1,0xaaaab
    1292:	aab58593          	addi	a1,a1,-1365 # aaaaaaab <_end+0xaaaa5fa7>
    1296:	66666537          	lui	a0,0x66666
    129a:	66650513          	addi	a0,a0,1638 # 66666666 <_end+0x66661b62>
    129e:	952e                	add	a0,a0,a1
    12a0:	32a0aa23          	sw	a0,820(ra)

000012a4 <inst_229>:
    12a4:	00600593          	li	a1,6
    12a8:	66666537          	lui	a0,0x66666
    12ac:	66650513          	addi	a0,a0,1638 # 66666666 <_end+0x66661b62>
    12b0:	952e                	add	a0,a0,a1
    12b2:	32a0ac23          	sw	a0,824(ra)

000012b6 <inst_230>:
    12b6:	333335b7          	lui	a1,0x33333
    12ba:	33458593          	addi	a1,a1,820 # 33333334 <_end+0x3332e830>
    12be:	66666537          	lui	a0,0x66666
    12c2:	66650513          	addi	a0,a0,1638 # 66666666 <_end+0x66661b62>
    12c6:	952e                	add	a0,a0,a1
    12c8:	32a0ae23          	sw	a0,828(ra)

000012cc <inst_231>:
    12cc:	666665b7          	lui	a1,0x66666
    12d0:	66758593          	addi	a1,a1,1639 # 66666667 <_end+0x66661b63>
    12d4:	66666537          	lui	a0,0x66666
    12d8:	66650513          	addi	a0,a0,1638 # 66666666 <_end+0x66661b62>
    12dc:	952e                	add	a0,a0,a1
    12de:	34a0a023          	sw	a0,832(ra)

000012e2 <inst_232>:
    12e2:	ffff55b7          	lui	a1,0xffff5
    12e6:	afd58593          	addi	a1,a1,-1283 # ffff4afd <_end+0xfffefff9>
    12ea:	66666537          	lui	a0,0x66666
    12ee:	66650513          	addi	a0,a0,1638 # 66666666 <_end+0x66661b62>
    12f2:	952e                	add	a0,a0,a1
    12f4:	34a0a223          	sw	a0,836(ra)

000012f8 <inst_233>:
    12f8:	0000b5b7          	lui	a1,0xb
    12fc:	50558593          	addi	a1,a1,1285 # b505 <_end+0x6a01>
    1300:	66666537          	lui	a0,0x66666
    1304:	66650513          	addi	a0,a0,1638 # 66666666 <_end+0x66661b62>
    1308:	952e                	add	a0,a0,a1
    130a:	34a0a423          	sw	a0,840(ra)

0000130e <inst_234>:
    130e:	00300593          	li	a1,3
    1312:	ffff5537          	lui	a0,0xffff5
    1316:	afc50513          	addi	a0,a0,-1284 # ffff4afc <_end+0xfffefff8>
    131a:	952e                	add	a0,a0,a1
    131c:	34a0a623          	sw	a0,844(ra)

00001320 <inst_235>:
    1320:	555555b7          	lui	a1,0x55555
    1324:	55558593          	addi	a1,a1,1365 # 55555555 <_end+0x55550a51>
    1328:	ffff5537          	lui	a0,0xffff5
    132c:	afc50513          	addi	a0,a0,-1284 # ffff4afc <_end+0xfffefff8>
    1330:	952e                	add	a0,a0,a1
    1332:	34a0a823          	sw	a0,848(ra)

00001336 <inst_236>:
    1336:	00500593          	li	a1,5
    133a:	ffff5537          	lui	a0,0xffff5
    133e:	afc50513          	addi	a0,a0,-1284 # ffff4afc <_end+0xfffefff8>
    1342:	952e                	add	a0,a0,a1
    1344:	34a0aa23          	sw	a0,852(ra)

00001348 <inst_237>:
    1348:	333335b7          	lui	a1,0x33333
    134c:	33358593          	addi	a1,a1,819 # 33333333 <_end+0x3332e82f>
    1350:	ffff5537          	lui	a0,0xffff5
    1354:	afc50513          	addi	a0,a0,-1284 # ffff4afc <_end+0xfffefff8>
    1358:	952e                	add	a0,a0,a1
    135a:	34a0ac23          	sw	a0,856(ra)

0000135e <inst_238>:
    135e:	666665b7          	lui	a1,0x66666
    1362:	66658593          	addi	a1,a1,1638 # 66666666 <_end+0x66661b62>
    1366:	ffff5537          	lui	a0,0xffff5
    136a:	afc50513          	addi	a0,a0,-1284 # ffff4afc <_end+0xfffefff8>
    136e:	952e                	add	a0,a0,a1
    1370:	34a0ae23          	sw	a0,860(ra)

00001374 <inst_239>:
    1374:	ffff55b7          	lui	a1,0xffff5
    1378:	afc58593          	addi	a1,a1,-1284 # ffff4afc <_end+0xfffefff8>
    137c:	ffff5537          	lui	a0,0xffff5
    1380:	afc50513          	addi	a0,a0,-1284 # ffff4afc <_end+0xfffefff8>
    1384:	952e                	add	a0,a0,a1
    1386:	36a0a023          	sw	a0,864(ra)

0000138a <inst_240>:
    138a:	0000b5b7          	lui	a1,0xb
    138e:	50458593          	addi	a1,a1,1284 # b504 <_end+0x6a00>
    1392:	ffff5537          	lui	a0,0xffff5
    1396:	afc50513          	addi	a0,a0,-1284 # ffff4afc <_end+0xfffefff8>
    139a:	952e                	add	a0,a0,a1
    139c:	36a0a223          	sw	a0,868(ra)

000013a0 <inst_241>:
    13a0:	00200593          	li	a1,2
    13a4:	ffff5537          	lui	a0,0xffff5
    13a8:	afc50513          	addi	a0,a0,-1284 # ffff4afc <_end+0xfffefff8>
    13ac:	952e                	add	a0,a0,a1
    13ae:	36a0a423          	sw	a0,872(ra)

000013b2 <inst_242>:
    13b2:	555555b7          	lui	a1,0x55555
    13b6:	55458593          	addi	a1,a1,1364 # 55555554 <_end+0x55550a50>
    13ba:	ffff5537          	lui	a0,0xffff5
    13be:	afc50513          	addi	a0,a0,-1284 # ffff4afc <_end+0xfffefff8>
    13c2:	952e                	add	a0,a0,a1
    13c4:	36a0a623          	sw	a0,876(ra)

000013c8 <inst_243>:
    13c8:	00000593          	li	a1,0
    13cc:	ffff5537          	lui	a0,0xffff5
    13d0:	afc50513          	addi	a0,a0,-1284 # ffff4afc <_end+0xfffefff8>
    13d4:	952e                	add	a0,a0,a1
    13d6:	36a0a823          	sw	a0,880(ra)

000013da <inst_244>:
    13da:	00400593          	li	a1,4
    13de:	ffff5537          	lui	a0,0xffff5
    13e2:	afc50513          	addi	a0,a0,-1284 # ffff4afc <_end+0xfffefff8>
    13e6:	952e                	add	a0,a0,a1
    13e8:	36a0aa23          	sw	a0,884(ra)

000013ec <inst_245>:
    13ec:	333335b7          	lui	a1,0x33333
    13f0:	33258593          	addi	a1,a1,818 # 33333332 <_end+0x3332e82e>
    13f4:	ffff5537          	lui	a0,0xffff5
    13f8:	afc50513          	addi	a0,a0,-1284 # ffff4afc <_end+0xfffefff8>
    13fc:	952e                	add	a0,a0,a1
    13fe:	36a0ac23          	sw	a0,888(ra)

00001402 <inst_246>:
    1402:	666665b7          	lui	a1,0x66666
    1406:	66558593          	addi	a1,a1,1637 # 66666665 <_end+0x66661b61>
    140a:	ffff5537          	lui	a0,0xffff5
    140e:	afc50513          	addi	a0,a0,-1284 # ffff4afc <_end+0xfffefff8>
    1412:	952e                	add	a0,a0,a1
    1414:	36a0ae23          	sw	a0,892(ra)

00001418 <inst_247>:
    1418:	0000b5b7          	lui	a1,0xb
    141c:	50358593          	addi	a1,a1,1283 # b503 <_end+0x69ff>
    1420:	ffff5537          	lui	a0,0xffff5
    1424:	afc50513          	addi	a0,a0,-1284 # ffff4afc <_end+0xfffefff8>
    1428:	952e                	add	a0,a0,a1
    142a:	38a0a023          	sw	a0,896(ra)

0000142e <inst_248>:
    142e:	555555b7          	lui	a1,0x55555
    1432:	55658593          	addi	a1,a1,1366 # 55555556 <_end+0x55550a52>
    1436:	ffff5537          	lui	a0,0xffff5
    143a:	afc50513          	addi	a0,a0,-1284 # ffff4afc <_end+0xfffefff8>
    143e:	952e                	add	a0,a0,a1
    1440:	38a0a223          	sw	a0,900(ra)

00001444 <inst_249>:
    1444:	aaaab5b7          	lui	a1,0xaaaab
    1448:	aab58593          	addi	a1,a1,-1365 # aaaaaaab <_end+0xaaaa5fa7>
    144c:	ffff5537          	lui	a0,0xffff5
    1450:	afc50513          	addi	a0,a0,-1284 # ffff4afc <_end+0xfffefff8>
    1454:	952e                	add	a0,a0,a1
    1456:	38a0a423          	sw	a0,904(ra)

0000145a <inst_250>:
    145a:	00600593          	li	a1,6
    145e:	ffff5537          	lui	a0,0xffff5
    1462:	afc50513          	addi	a0,a0,-1284 # ffff4afc <_end+0xfffefff8>
    1466:	952e                	add	a0,a0,a1
    1468:	38a0a623          	sw	a0,908(ra)

0000146c <inst_251>:
    146c:	333335b7          	lui	a1,0x33333
    1470:	33458593          	addi	a1,a1,820 # 33333334 <_end+0x3332e830>
    1474:	ffff5537          	lui	a0,0xffff5
    1478:	afc50513          	addi	a0,a0,-1284 # ffff4afc <_end+0xfffefff8>
    147c:	952e                	add	a0,a0,a1
    147e:	38a0a823          	sw	a0,912(ra)

00001482 <inst_252>:
    1482:	666665b7          	lui	a1,0x66666
    1486:	66758593          	addi	a1,a1,1639 # 66666667 <_end+0x66661b63>
    148a:	ffff5537          	lui	a0,0xffff5
    148e:	afc50513          	addi	a0,a0,-1284 # ffff4afc <_end+0xfffefff8>
    1492:	952e                	add	a0,a0,a1
    1494:	38a0aa23          	sw	a0,916(ra)

00001498 <inst_253>:
    1498:	ffff55b7          	lui	a1,0xffff5
    149c:	afd58593          	addi	a1,a1,-1283 # ffff4afd <_end+0xfffefff9>
    14a0:	ffff5537          	lui	a0,0xffff5
    14a4:	afc50513          	addi	a0,a0,-1284 # ffff4afc <_end+0xfffefff8>
    14a8:	952e                	add	a0,a0,a1
    14aa:	38a0ac23          	sw	a0,920(ra)

000014ae <inst_254>:
    14ae:	0000b5b7          	lui	a1,0xb
    14b2:	50558593          	addi	a1,a1,1285 # b505 <_end+0x6a01>
    14b6:	ffff5537          	lui	a0,0xffff5
    14ba:	afc50513          	addi	a0,a0,-1284 # ffff4afc <_end+0xfffefff8>
    14be:	952e                	add	a0,a0,a1
    14c0:	38a0ae23          	sw	a0,924(ra)

000014c4 <inst_255>:
    14c4:	00300593          	li	a1,3
    14c8:	0000b537          	lui	a0,0xb
    14cc:	50450513          	addi	a0,a0,1284 # b504 <_end+0x6a00>
    14d0:	952e                	add	a0,a0,a1
    14d2:	3aa0a023          	sw	a0,928(ra)

000014d6 <inst_256>:
    14d6:	555555b7          	lui	a1,0x55555
    14da:	55558593          	addi	a1,a1,1365 # 55555555 <_end+0x55550a51>
    14de:	0000b537          	lui	a0,0xb
    14e2:	50450513          	addi	a0,a0,1284 # b504 <_end+0x6a00>
    14e6:	952e                	add	a0,a0,a1
    14e8:	3aa0a223          	sw	a0,932(ra)

000014ec <inst_257>:
    14ec:	aaaab5b7          	lui	a1,0xaaaab
    14f0:	aaa58593          	addi	a1,a1,-1366 # aaaaaaaa <_end+0xaaaa5fa6>
    14f4:	0000b537          	lui	a0,0xb
    14f8:	50450513          	addi	a0,a0,1284 # b504 <_end+0x6a00>
    14fc:	952e                	add	a0,a0,a1
    14fe:	3aa0a423          	sw	a0,936(ra)

00001502 <inst_258>:
    1502:	00500593          	li	a1,5
    1506:	0000b537          	lui	a0,0xb
    150a:	50450513          	addi	a0,a0,1284 # b504 <_end+0x6a00>
    150e:	952e                	add	a0,a0,a1
    1510:	3aa0a623          	sw	a0,940(ra)

00001514 <inst_259>:
    1514:	333335b7          	lui	a1,0x33333
    1518:	33358593          	addi	a1,a1,819 # 33333333 <_end+0x3332e82f>
    151c:	0000b537          	lui	a0,0xb
    1520:	50450513          	addi	a0,a0,1284 # b504 <_end+0x6a00>
    1524:	952e                	add	a0,a0,a1
    1526:	3aa0a823          	sw	a0,944(ra)

0000152a <inst_260>:
    152a:	666665b7          	lui	a1,0x66666
    152e:	66658593          	addi	a1,a1,1638 # 66666666 <_end+0x66661b62>
    1532:	0000b537          	lui	a0,0xb
    1536:	50450513          	addi	a0,a0,1284 # b504 <_end+0x6a00>
    153a:	952e                	add	a0,a0,a1
    153c:	3aa0aa23          	sw	a0,948(ra)

00001540 <inst_261>:
    1540:	ffff55b7          	lui	a1,0xffff5
    1544:	afc58593          	addi	a1,a1,-1284 # ffff4afc <_end+0xfffefff8>
    1548:	0000b537          	lui	a0,0xb
    154c:	50450513          	addi	a0,a0,1284 # b504 <_end+0x6a00>
    1550:	952e                	add	a0,a0,a1
    1552:	3aa0ac23          	sw	a0,952(ra)

00001556 <inst_262>:
    1556:	0000b5b7          	lui	a1,0xb
    155a:	50458593          	addi	a1,a1,1284 # b504 <_end+0x6a00>
    155e:	0000b537          	lui	a0,0xb
    1562:	50450513          	addi	a0,a0,1284 # b504 <_end+0x6a00>
    1566:	952e                	add	a0,a0,a1
    1568:	3aa0ae23          	sw	a0,956(ra)

0000156c <inst_263>:
    156c:	00200593          	li	a1,2
    1570:	0000b537          	lui	a0,0xb
    1574:	50450513          	addi	a0,a0,1284 # b504 <_end+0x6a00>
    1578:	952e                	add	a0,a0,a1
    157a:	3ca0a023          	sw	a0,960(ra)

0000157e <inst_264>:
    157e:	555555b7          	lui	a1,0x55555
    1582:	55458593          	addi	a1,a1,1364 # 55555554 <_end+0x55550a50>
    1586:	0000b537          	lui	a0,0xb
    158a:	50450513          	addi	a0,a0,1284 # b504 <_end+0x6a00>
    158e:	952e                	add	a0,a0,a1
    1590:	3ca0a223          	sw	a0,964(ra)

00001594 <inst_265>:
    1594:	00000593          	li	a1,0
    1598:	0000b537          	lui	a0,0xb
    159c:	50450513          	addi	a0,a0,1284 # b504 <_end+0x6a00>
    15a0:	952e                	add	a0,a0,a1
    15a2:	3ca0a423          	sw	a0,968(ra)

000015a6 <inst_266>:
    15a6:	00400593          	li	a1,4
    15aa:	0000b537          	lui	a0,0xb
    15ae:	50450513          	addi	a0,a0,1284 # b504 <_end+0x6a00>
    15b2:	952e                	add	a0,a0,a1
    15b4:	3ca0a623          	sw	a0,972(ra)

000015b8 <inst_267>:
    15b8:	333335b7          	lui	a1,0x33333
    15bc:	33258593          	addi	a1,a1,818 # 33333332 <_end+0x3332e82e>
    15c0:	0000b537          	lui	a0,0xb
    15c4:	50450513          	addi	a0,a0,1284 # b504 <_end+0x6a00>
    15c8:	952e                	add	a0,a0,a1
    15ca:	3ca0a823          	sw	a0,976(ra)

000015ce <inst_268>:
    15ce:	666665b7          	lui	a1,0x66666
    15d2:	66558593          	addi	a1,a1,1637 # 66666665 <_end+0x66661b61>
    15d6:	0000b537          	lui	a0,0xb
    15da:	50450513          	addi	a0,a0,1284 # b504 <_end+0x6a00>
    15de:	952e                	add	a0,a0,a1
    15e0:	3ca0aa23          	sw	a0,980(ra)

000015e4 <inst_269>:
    15e4:	0000b5b7          	lui	a1,0xb
    15e8:	50358593          	addi	a1,a1,1283 # b503 <_end+0x69ff>
    15ec:	0000b537          	lui	a0,0xb
    15f0:	50450513          	addi	a0,a0,1284 # b504 <_end+0x6a00>
    15f4:	952e                	add	a0,a0,a1
    15f6:	3ca0ac23          	sw	a0,984(ra)

000015fa <inst_270>:
    15fa:	555555b7          	lui	a1,0x55555
    15fe:	55658593          	addi	a1,a1,1366 # 55555556 <_end+0x55550a52>
    1602:	0000b537          	lui	a0,0xb
    1606:	50450513          	addi	a0,a0,1284 # b504 <_end+0x6a00>
    160a:	952e                	add	a0,a0,a1
    160c:	3ca0ae23          	sw	a0,988(ra)

00001610 <inst_271>:
    1610:	aaaab5b7          	lui	a1,0xaaaab
    1614:	aab58593          	addi	a1,a1,-1365 # aaaaaaab <_end+0xaaaa5fa7>
    1618:	0000b537          	lui	a0,0xb
    161c:	50450513          	addi	a0,a0,1284 # b504 <_end+0x6a00>
    1620:	952e                	add	a0,a0,a1
    1622:	3ea0a023          	sw	a0,992(ra)

00001626 <inst_272>:
    1626:	00600593          	li	a1,6
    162a:	0000b537          	lui	a0,0xb
    162e:	50450513          	addi	a0,a0,1284 # b504 <_end+0x6a00>
    1632:	952e                	add	a0,a0,a1
    1634:	3ea0a223          	sw	a0,996(ra)

00001638 <inst_273>:
    1638:	333335b7          	lui	a1,0x33333
    163c:	33458593          	addi	a1,a1,820 # 33333334 <_end+0x3332e830>
    1640:	0000b537          	lui	a0,0xb
    1644:	50450513          	addi	a0,a0,1284 # b504 <_end+0x6a00>
    1648:	952e                	add	a0,a0,a1
    164a:	3ea0a423          	sw	a0,1000(ra)

0000164e <inst_274>:
    164e:	666665b7          	lui	a1,0x66666
    1652:	66758593          	addi	a1,a1,1639 # 66666667 <_end+0x66661b63>
    1656:	0000b537          	lui	a0,0xb
    165a:	50450513          	addi	a0,a0,1284 # b504 <_end+0x6a00>
    165e:	952e                	add	a0,a0,a1
    1660:	3ea0a623          	sw	a0,1004(ra)

00001664 <inst_275>:
    1664:	ffff55b7          	lui	a1,0xffff5
    1668:	afd58593          	addi	a1,a1,-1283 # ffff4afd <_end+0xfffefff9>
    166c:	0000b537          	lui	a0,0xb
    1670:	50450513          	addi	a0,a0,1284 # b504 <_end+0x6a00>
    1674:	952e                	add	a0,a0,a1
    1676:	3ea0a823          	sw	a0,1008(ra)

0000167a <inst_276>:
    167a:	0000b5b7          	lui	a1,0xb
    167e:	50558593          	addi	a1,a1,1285 # b505 <_end+0x6a01>
    1682:	0000b537          	lui	a0,0xb
    1686:	50450513          	addi	a0,a0,1284 # b504 <_end+0x6a00>
    168a:	952e                	add	a0,a0,a1
    168c:	3ea0aa23          	sw	a0,1012(ra)

00001690 <inst_277>:
    1690:	00300593          	li	a1,3
    1694:	00200513          	li	a0,2
    1698:	952e                	add	a0,a0,a1
    169a:	3ea0ac23          	sw	a0,1016(ra)

0000169e <inst_278>:
    169e:	555555b7          	lui	a1,0x55555
    16a2:	55558593          	addi	a1,a1,1365 # 55555555 <_end+0x55550a51>
    16a6:	00200513          	li	a0,2
    16aa:	952e                	add	a0,a0,a1
    16ac:	3ea0ae23          	sw	a0,1020(ra)

000016b0 <inst_279>:
    16b0:	aaaab5b7          	lui	a1,0xaaaab
    16b4:	aaa58593          	addi	a1,a1,-1366 # aaaaaaaa <_end+0xaaaa5fa6>
    16b8:	00200513          	li	a0,2
    16bc:	952e                	add	a0,a0,a1
    16be:	40a0a023          	sw	a0,1024(ra)

000016c2 <inst_280>:
    16c2:	00500593          	li	a1,5
    16c6:	00200513          	li	a0,2
    16ca:	952e                	add	a0,a0,a1
    16cc:	40a0a223          	sw	a0,1028(ra)

000016d0 <inst_281>:
    16d0:	333335b7          	lui	a1,0x33333
    16d4:	33358593          	addi	a1,a1,819 # 33333333 <_end+0x3332e82f>
    16d8:	00200513          	li	a0,2
    16dc:	952e                	add	a0,a0,a1
    16de:	40a0a423          	sw	a0,1032(ra)

000016e2 <inst_282>:
    16e2:	666665b7          	lui	a1,0x66666
    16e6:	66658593          	addi	a1,a1,1638 # 66666666 <_end+0x66661b62>
    16ea:	00200513          	li	a0,2
    16ee:	952e                	add	a0,a0,a1
    16f0:	40a0a623          	sw	a0,1036(ra)

000016f4 <inst_283>:
    16f4:	ffff55b7          	lui	a1,0xffff5
    16f8:	afc58593          	addi	a1,a1,-1284 # ffff4afc <_end+0xfffefff8>
    16fc:	00200513          	li	a0,2
    1700:	952e                	add	a0,a0,a1
    1702:	40a0a823          	sw	a0,1040(ra)

00001706 <inst_284>:
    1706:	0000b5b7          	lui	a1,0xb
    170a:	50458593          	addi	a1,a1,1284 # b504 <_end+0x6a00>
    170e:	00200513          	li	a0,2
    1712:	952e                	add	a0,a0,a1
    1714:	40a0aa23          	sw	a0,1044(ra)

00001718 <inst_285>:
    1718:	00200593          	li	a1,2
    171c:	00200513          	li	a0,2
    1720:	952e                	add	a0,a0,a1
    1722:	40a0ac23          	sw	a0,1048(ra)

00001726 <inst_286>:
    1726:	555555b7          	lui	a1,0x55555
    172a:	55458593          	addi	a1,a1,1364 # 55555554 <_end+0x55550a50>
    172e:	00200513          	li	a0,2
    1732:	952e                	add	a0,a0,a1
    1734:	40a0ae23          	sw	a0,1052(ra)

00001738 <inst_287>:
    1738:	00000593          	li	a1,0
    173c:	00200513          	li	a0,2
    1740:	952e                	add	a0,a0,a1
    1742:	42a0a023          	sw	a0,1056(ra)

00001746 <inst_288>:
    1746:	00400593          	li	a1,4
    174a:	00200513          	li	a0,2
    174e:	952e                	add	a0,a0,a1
    1750:	42a0a223          	sw	a0,1060(ra)

00001754 <inst_289>:
    1754:	333335b7          	lui	a1,0x33333
    1758:	33258593          	addi	a1,a1,818 # 33333332 <_end+0x3332e82e>
    175c:	00200513          	li	a0,2
    1760:	952e                	add	a0,a0,a1
    1762:	42a0a423          	sw	a0,1064(ra)

00001766 <inst_290>:
    1766:	666665b7          	lui	a1,0x66666
    176a:	66558593          	addi	a1,a1,1637 # 66666665 <_end+0x66661b61>
    176e:	00200513          	li	a0,2
    1772:	952e                	add	a0,a0,a1
    1774:	42a0a623          	sw	a0,1068(ra)

00001778 <inst_291>:
    1778:	0000b5b7          	lui	a1,0xb
    177c:	50358593          	addi	a1,a1,1283 # b503 <_end+0x69ff>
    1780:	00200513          	li	a0,2
    1784:	952e                	add	a0,a0,a1
    1786:	42a0a823          	sw	a0,1072(ra)

0000178a <inst_292>:
    178a:	555555b7          	lui	a1,0x55555
    178e:	55658593          	addi	a1,a1,1366 # 55555556 <_end+0x55550a52>
    1792:	00200513          	li	a0,2
    1796:	952e                	add	a0,a0,a1
    1798:	42a0aa23          	sw	a0,1076(ra)

0000179c <inst_293>:
    179c:	aaaab5b7          	lui	a1,0xaaaab
    17a0:	aab58593          	addi	a1,a1,-1365 # aaaaaaab <_end+0xaaaa5fa7>
    17a4:	00200513          	li	a0,2
    17a8:	952e                	add	a0,a0,a1
    17aa:	42a0ac23          	sw	a0,1080(ra)

000017ae <inst_294>:
    17ae:	00600593          	li	a1,6
    17b2:	00200513          	li	a0,2
    17b6:	952e                	add	a0,a0,a1
    17b8:	42a0ae23          	sw	a0,1084(ra)

000017bc <inst_295>:
    17bc:	333335b7          	lui	a1,0x33333
    17c0:	33458593          	addi	a1,a1,820 # 33333334 <_end+0x3332e830>
    17c4:	00200513          	li	a0,2
    17c8:	952e                	add	a0,a0,a1
    17ca:	44a0a023          	sw	a0,1088(ra)

000017ce <inst_296>:
    17ce:	666665b7          	lui	a1,0x66666
    17d2:	66758593          	addi	a1,a1,1639 # 66666667 <_end+0x66661b63>
    17d6:	00200513          	li	a0,2
    17da:	952e                	add	a0,a0,a1
    17dc:	44a0a223          	sw	a0,1092(ra)

000017e0 <inst_297>:
    17e0:	ffff55b7          	lui	a1,0xffff5
    17e4:	afd58593          	addi	a1,a1,-1283 # ffff4afd <_end+0xfffefff9>
    17e8:	00200513          	li	a0,2
    17ec:	952e                	add	a0,a0,a1
    17ee:	44a0a423          	sw	a0,1096(ra)

000017f2 <inst_298>:
    17f2:	0000b5b7          	lui	a1,0xb
    17f6:	50558593          	addi	a1,a1,1285 # b505 <_end+0x6a01>
    17fa:	00200513          	li	a0,2
    17fe:	952e                	add	a0,a0,a1
    1800:	44a0a623          	sw	a0,1100(ra)

00001804 <inst_299>:
    1804:	00300593          	li	a1,3
    1808:	55555537          	lui	a0,0x55555
    180c:	55450513          	addi	a0,a0,1364 # 55555554 <_end+0x55550a50>
    1810:	952e                	add	a0,a0,a1
    1812:	44a0a823          	sw	a0,1104(ra)

00001816 <inst_300>:
    1816:	555555b7          	lui	a1,0x55555
    181a:	55558593          	addi	a1,a1,1365 # 55555555 <_end+0x55550a51>
    181e:	55555537          	lui	a0,0x55555
    1822:	55450513          	addi	a0,a0,1364 # 55555554 <_end+0x55550a50>
    1826:	952e                	add	a0,a0,a1
    1828:	44a0aa23          	sw	a0,1108(ra)

0000182c <inst_301>:
    182c:	aaaab5b7          	lui	a1,0xaaaab
    1830:	aaa58593          	addi	a1,a1,-1366 # aaaaaaaa <_end+0xaaaa5fa6>
    1834:	55555537          	lui	a0,0x55555
    1838:	55450513          	addi	a0,a0,1364 # 55555554 <_end+0x55550a50>
    183c:	952e                	add	a0,a0,a1
    183e:	44a0ac23          	sw	a0,1112(ra)

00001842 <inst_302>:
    1842:	00500593          	li	a1,5
    1846:	55555537          	lui	a0,0x55555
    184a:	55450513          	addi	a0,a0,1364 # 55555554 <_end+0x55550a50>
    184e:	952e                	add	a0,a0,a1
    1850:	44a0ae23          	sw	a0,1116(ra)

00001854 <inst_303>:
    1854:	333335b7          	lui	a1,0x33333
    1858:	33358593          	addi	a1,a1,819 # 33333333 <_end+0x3332e82f>
    185c:	55555537          	lui	a0,0x55555
    1860:	55450513          	addi	a0,a0,1364 # 55555554 <_end+0x55550a50>
    1864:	952e                	add	a0,a0,a1
    1866:	46a0a023          	sw	a0,1120(ra)

0000186a <inst_304>:
    186a:	666665b7          	lui	a1,0x66666
    186e:	66658593          	addi	a1,a1,1638 # 66666666 <_end+0x66661b62>
    1872:	55555537          	lui	a0,0x55555
    1876:	55450513          	addi	a0,a0,1364 # 55555554 <_end+0x55550a50>
    187a:	952e                	add	a0,a0,a1
    187c:	46a0a223          	sw	a0,1124(ra)

00001880 <inst_305>:
    1880:	ffff55b7          	lui	a1,0xffff5
    1884:	afc58593          	addi	a1,a1,-1284 # ffff4afc <_end+0xfffefff8>
    1888:	55555537          	lui	a0,0x55555
    188c:	55450513          	addi	a0,a0,1364 # 55555554 <_end+0x55550a50>
    1890:	952e                	add	a0,a0,a1
    1892:	46a0a423          	sw	a0,1128(ra)

00001896 <inst_306>:
    1896:	0000b5b7          	lui	a1,0xb
    189a:	50458593          	addi	a1,a1,1284 # b504 <_end+0x6a00>
    189e:	55555537          	lui	a0,0x55555
    18a2:	55450513          	addi	a0,a0,1364 # 55555554 <_end+0x55550a50>
    18a6:	952e                	add	a0,a0,a1
    18a8:	46a0a623          	sw	a0,1132(ra)

000018ac <inst_307>:
    18ac:	00200593          	li	a1,2
    18b0:	55555537          	lui	a0,0x55555
    18b4:	55450513          	addi	a0,a0,1364 # 55555554 <_end+0x55550a50>
    18b8:	952e                	add	a0,a0,a1
    18ba:	46a0a823          	sw	a0,1136(ra)

000018be <inst_308>:
    18be:	555555b7          	lui	a1,0x55555
    18c2:	55458593          	addi	a1,a1,1364 # 55555554 <_end+0x55550a50>
    18c6:	55555537          	lui	a0,0x55555
    18ca:	55450513          	addi	a0,a0,1364 # 55555554 <_end+0x55550a50>
    18ce:	952e                	add	a0,a0,a1
    18d0:	46a0aa23          	sw	a0,1140(ra)

000018d4 <inst_309>:
    18d4:	00000593          	li	a1,0
    18d8:	55555537          	lui	a0,0x55555
    18dc:	55450513          	addi	a0,a0,1364 # 55555554 <_end+0x55550a50>
    18e0:	952e                	add	a0,a0,a1
    18e2:	46a0ac23          	sw	a0,1144(ra)

000018e6 <inst_310>:
    18e6:	00400593          	li	a1,4
    18ea:	55555537          	lui	a0,0x55555
    18ee:	55450513          	addi	a0,a0,1364 # 55555554 <_end+0x55550a50>
    18f2:	952e                	add	a0,a0,a1
    18f4:	46a0ae23          	sw	a0,1148(ra)

000018f8 <inst_311>:
    18f8:	333335b7          	lui	a1,0x33333
    18fc:	33258593          	addi	a1,a1,818 # 33333332 <_end+0x3332e82e>
    1900:	55555537          	lui	a0,0x55555
    1904:	55450513          	addi	a0,a0,1364 # 55555554 <_end+0x55550a50>
    1908:	952e                	add	a0,a0,a1
    190a:	48a0a023          	sw	a0,1152(ra)

0000190e <inst_312>:
    190e:	666665b7          	lui	a1,0x66666
    1912:	66558593          	addi	a1,a1,1637 # 66666665 <_end+0x66661b61>
    1916:	55555537          	lui	a0,0x55555
    191a:	55450513          	addi	a0,a0,1364 # 55555554 <_end+0x55550a50>
    191e:	952e                	add	a0,a0,a1
    1920:	48a0a223          	sw	a0,1156(ra)

00001924 <inst_313>:
    1924:	0000b5b7          	lui	a1,0xb
    1928:	50358593          	addi	a1,a1,1283 # b503 <_end+0x69ff>
    192c:	55555537          	lui	a0,0x55555
    1930:	55450513          	addi	a0,a0,1364 # 55555554 <_end+0x55550a50>
    1934:	952e                	add	a0,a0,a1
    1936:	48a0a423          	sw	a0,1160(ra)

0000193a <inst_314>:
    193a:	555555b7          	lui	a1,0x55555
    193e:	55658593          	addi	a1,a1,1366 # 55555556 <_end+0x55550a52>
    1942:	55555537          	lui	a0,0x55555
    1946:	55450513          	addi	a0,a0,1364 # 55555554 <_end+0x55550a50>
    194a:	952e                	add	a0,a0,a1
    194c:	48a0a623          	sw	a0,1164(ra)

00001950 <inst_315>:
    1950:	aaaab5b7          	lui	a1,0xaaaab
    1954:	aab58593          	addi	a1,a1,-1365 # aaaaaaab <_end+0xaaaa5fa7>
    1958:	55555537          	lui	a0,0x55555
    195c:	55450513          	addi	a0,a0,1364 # 55555554 <_end+0x55550a50>
    1960:	952e                	add	a0,a0,a1
    1962:	48a0a823          	sw	a0,1168(ra)

00001966 <inst_316>:
    1966:	00600593          	li	a1,6
    196a:	55555537          	lui	a0,0x55555
    196e:	55450513          	addi	a0,a0,1364 # 55555554 <_end+0x55550a50>
    1972:	952e                	add	a0,a0,a1
    1974:	48a0aa23          	sw	a0,1172(ra)

00001978 <inst_317>:
    1978:	333335b7          	lui	a1,0x33333
    197c:	33458593          	addi	a1,a1,820 # 33333334 <_end+0x3332e830>
    1980:	55555537          	lui	a0,0x55555
    1984:	55450513          	addi	a0,a0,1364 # 55555554 <_end+0x55550a50>
    1988:	952e                	add	a0,a0,a1
    198a:	48a0ac23          	sw	a0,1176(ra)

0000198e <inst_318>:
    198e:	666665b7          	lui	a1,0x66666
    1992:	66758593          	addi	a1,a1,1639 # 66666667 <_end+0x66661b63>
    1996:	55555537          	lui	a0,0x55555
    199a:	55450513          	addi	a0,a0,1364 # 55555554 <_end+0x55550a50>
    199e:	952e                	add	a0,a0,a1
    19a0:	48a0ae23          	sw	a0,1180(ra)

000019a4 <inst_319>:
    19a4:	ffff55b7          	lui	a1,0xffff5
    19a8:	afd58593          	addi	a1,a1,-1283 # ffff4afd <_end+0xfffefff9>
    19ac:	55555537          	lui	a0,0x55555
    19b0:	55450513          	addi	a0,a0,1364 # 55555554 <_end+0x55550a50>
    19b4:	952e                	add	a0,a0,a1
    19b6:	4aa0a023          	sw	a0,1184(ra)

000019ba <inst_320>:
    19ba:	0000b5b7          	lui	a1,0xb
    19be:	50558593          	addi	a1,a1,1285 # b505 <_end+0x6a01>
    19c2:	55555537          	lui	a0,0x55555
    19c6:	55450513          	addi	a0,a0,1364 # 55555554 <_end+0x55550a50>
    19ca:	952e                	add	a0,a0,a1
    19cc:	4aa0a223          	sw	a0,1188(ra)

000019d0 <inst_321>:
    19d0:	00300593          	li	a1,3
    19d4:	00000513          	li	a0,0
    19d8:	952e                	add	a0,a0,a1
    19da:	4aa0a423          	sw	a0,1192(ra)

000019de <inst_322>:
    19de:	555555b7          	lui	a1,0x55555
    19e2:	55558593          	addi	a1,a1,1365 # 55555555 <_end+0x55550a51>
    19e6:	00000513          	li	a0,0
    19ea:	952e                	add	a0,a0,a1
    19ec:	4aa0a623          	sw	a0,1196(ra)

000019f0 <inst_323>:
    19f0:	aaaab5b7          	lui	a1,0xaaaab
    19f4:	aaa58593          	addi	a1,a1,-1366 # aaaaaaaa <_end+0xaaaa5fa6>
    19f8:	00000513          	li	a0,0
    19fc:	952e                	add	a0,a0,a1
    19fe:	4aa0a823          	sw	a0,1200(ra)

00001a02 <inst_324>:
    1a02:	00500593          	li	a1,5
    1a06:	00000513          	li	a0,0
    1a0a:	952e                	add	a0,a0,a1
    1a0c:	4aa0aa23          	sw	a0,1204(ra)

00001a10 <inst_325>:
    1a10:	333335b7          	lui	a1,0x33333
    1a14:	33358593          	addi	a1,a1,819 # 33333333 <_end+0x3332e82f>
    1a18:	00000513          	li	a0,0
    1a1c:	952e                	add	a0,a0,a1
    1a1e:	4aa0ac23          	sw	a0,1208(ra)

00001a22 <inst_326>:
    1a22:	666665b7          	lui	a1,0x66666
    1a26:	66658593          	addi	a1,a1,1638 # 66666666 <_end+0x66661b62>
    1a2a:	00000513          	li	a0,0
    1a2e:	952e                	add	a0,a0,a1
    1a30:	4aa0ae23          	sw	a0,1212(ra)

00001a34 <inst_327>:
    1a34:	ffff55b7          	lui	a1,0xffff5
    1a38:	afc58593          	addi	a1,a1,-1284 # ffff4afc <_end+0xfffefff8>
    1a3c:	00000513          	li	a0,0
    1a40:	952e                	add	a0,a0,a1
    1a42:	4ca0a023          	sw	a0,1216(ra)

00001a46 <inst_328>:
    1a46:	0000b5b7          	lui	a1,0xb
    1a4a:	50458593          	addi	a1,a1,1284 # b504 <_end+0x6a00>
    1a4e:	00000513          	li	a0,0
    1a52:	952e                	add	a0,a0,a1
    1a54:	4ca0a223          	sw	a0,1220(ra)

00001a58 <inst_329>:
    1a58:	00200593          	li	a1,2
    1a5c:	00000513          	li	a0,0
    1a60:	952e                	add	a0,a0,a1
    1a62:	4ca0a423          	sw	a0,1224(ra)

00001a66 <inst_330>:
    1a66:	ffff55b7          	lui	a1,0xffff5
    1a6a:	afd58593          	addi	a1,a1,-1283 # ffff4afd <_end+0xfffefff9>
    1a6e:	aaaab537          	lui	a0,0xaaaab
    1a72:	aab50513          	addi	a0,a0,-1365 # aaaaaaab <_end+0xaaaa5fa7>
    1a76:	952e                	add	a0,a0,a1
    1a78:	4ca0a623          	sw	a0,1228(ra)

00001a7c <inst_331>:
    1a7c:	0000b5b7          	lui	a1,0xb
    1a80:	50558593          	addi	a1,a1,1285 # b505 <_end+0x6a01>
    1a84:	aaaab537          	lui	a0,0xaaaab
    1a88:	aab50513          	addi	a0,a0,-1365 # aaaaaaab <_end+0xaaaa5fa7>
    1a8c:	952e                	add	a0,a0,a1
    1a8e:	4ca0a823          	sw	a0,1232(ra)

00001a92 <inst_332>:
    1a92:	00300593          	li	a1,3
    1a96:	00600513          	li	a0,6
    1a9a:	952e                	add	a0,a0,a1
    1a9c:	4ca0aa23          	sw	a0,1236(ra)

00001aa0 <inst_333>:
    1aa0:	555555b7          	lui	a1,0x55555
    1aa4:	55558593          	addi	a1,a1,1365 # 55555555 <_end+0x55550a51>
    1aa8:	00600513          	li	a0,6
    1aac:	952e                	add	a0,a0,a1
    1aae:	4ca0ac23          	sw	a0,1240(ra)

00001ab2 <inst_334>:
    1ab2:	aaaab5b7          	lui	a1,0xaaaab
    1ab6:	aaa58593          	addi	a1,a1,-1366 # aaaaaaaa <_end+0xaaaa5fa6>
    1aba:	00600513          	li	a0,6
    1abe:	952e                	add	a0,a0,a1
    1ac0:	4ca0ae23          	sw	a0,1244(ra)

00001ac4 <inst_335>:
    1ac4:	00500593          	li	a1,5
    1ac8:	00600513          	li	a0,6
    1acc:	952e                	add	a0,a0,a1
    1ace:	4ea0a023          	sw	a0,1248(ra)

00001ad2 <inst_336>:
    1ad2:	333335b7          	lui	a1,0x33333
    1ad6:	33358593          	addi	a1,a1,819 # 33333333 <_end+0x3332e82f>
    1ada:	00600513          	li	a0,6
    1ade:	952e                	add	a0,a0,a1
    1ae0:	4ea0a223          	sw	a0,1252(ra)

00001ae4 <inst_337>:
    1ae4:	666665b7          	lui	a1,0x66666
    1ae8:	66658593          	addi	a1,a1,1638 # 66666666 <_end+0x66661b62>
    1aec:	00600513          	li	a0,6
    1af0:	952e                	add	a0,a0,a1
    1af2:	4ea0a423          	sw	a0,1256(ra)

00001af6 <inst_338>:
    1af6:	ffff55b7          	lui	a1,0xffff5
    1afa:	afc58593          	addi	a1,a1,-1284 # ffff4afc <_end+0xfffefff8>
    1afe:	00600513          	li	a0,6
    1b02:	952e                	add	a0,a0,a1
    1b04:	4ea0a623          	sw	a0,1260(ra)

00001b08 <inst_339>:
    1b08:	0000b5b7          	lui	a1,0xb
    1b0c:	50458593          	addi	a1,a1,1284 # b504 <_end+0x6a00>
    1b10:	00600513          	li	a0,6
    1b14:	952e                	add	a0,a0,a1
    1b16:	4ea0a823          	sw	a0,1264(ra)

00001b1a <inst_340>:
    1b1a:	00200593          	li	a1,2
    1b1e:	00600513          	li	a0,6
    1b22:	952e                	add	a0,a0,a1
    1b24:	4ea0aa23          	sw	a0,1268(ra)

00001b28 <inst_341>:
    1b28:	555555b7          	lui	a1,0x55555
    1b2c:	55458593          	addi	a1,a1,1364 # 55555554 <_end+0x55550a50>
    1b30:	00600513          	li	a0,6
    1b34:	952e                	add	a0,a0,a1
    1b36:	4ea0ac23          	sw	a0,1272(ra)

00001b3a <inst_342>:
    1b3a:	00000593          	li	a1,0
    1b3e:	00600513          	li	a0,6
    1b42:	952e                	add	a0,a0,a1
    1b44:	4ea0ae23          	sw	a0,1276(ra)

00001b48 <inst_343>:
    1b48:	00400593          	li	a1,4
    1b4c:	00600513          	li	a0,6
    1b50:	952e                	add	a0,a0,a1
    1b52:	50a0a023          	sw	a0,1280(ra)

00001b56 <inst_344>:
    1b56:	333335b7          	lui	a1,0x33333
    1b5a:	33258593          	addi	a1,a1,818 # 33333332 <_end+0x3332e82e>
    1b5e:	00600513          	li	a0,6
    1b62:	952e                	add	a0,a0,a1
    1b64:	50a0a223          	sw	a0,1284(ra)

00001b68 <inst_345>:
    1b68:	666665b7          	lui	a1,0x66666
    1b6c:	66558593          	addi	a1,a1,1637 # 66666665 <_end+0x66661b61>
    1b70:	00600513          	li	a0,6
    1b74:	952e                	add	a0,a0,a1
    1b76:	50a0a423          	sw	a0,1288(ra)

00001b7a <inst_346>:
    1b7a:	0000b5b7          	lui	a1,0xb
    1b7e:	50358593          	addi	a1,a1,1283 # b503 <_end+0x69ff>
    1b82:	00600513          	li	a0,6
    1b86:	952e                	add	a0,a0,a1
    1b88:	50a0a623          	sw	a0,1292(ra)

00001b8c <inst_347>:
    1b8c:	555555b7          	lui	a1,0x55555
    1b90:	55658593          	addi	a1,a1,1366 # 55555556 <_end+0x55550a52>
    1b94:	00600513          	li	a0,6
    1b98:	952e                	add	a0,a0,a1
    1b9a:	50a0a823          	sw	a0,1296(ra)

00001b9e <inst_348>:
    1b9e:	aaaab5b7          	lui	a1,0xaaaab
    1ba2:	aab58593          	addi	a1,a1,-1365 # aaaaaaab <_end+0xaaaa5fa7>
    1ba6:	00600513          	li	a0,6
    1baa:	952e                	add	a0,a0,a1
    1bac:	50a0aa23          	sw	a0,1300(ra)

00001bb0 <inst_349>:
    1bb0:	00600593          	li	a1,6
    1bb4:	00600513          	li	a0,6
    1bb8:	952e                	add	a0,a0,a1
    1bba:	50a0ac23          	sw	a0,1304(ra)

00001bbe <inst_350>:
    1bbe:	333335b7          	lui	a1,0x33333
    1bc2:	33458593          	addi	a1,a1,820 # 33333334 <_end+0x3332e830>
    1bc6:	00600513          	li	a0,6
    1bca:	952e                	add	a0,a0,a1
    1bcc:	50a0ae23          	sw	a0,1308(ra)

00001bd0 <inst_351>:
    1bd0:	666665b7          	lui	a1,0x66666
    1bd4:	66758593          	addi	a1,a1,1639 # 66666667 <_end+0x66661b63>
    1bd8:	00600513          	li	a0,6
    1bdc:	952e                	add	a0,a0,a1
    1bde:	52a0a023          	sw	a0,1312(ra)

00001be2 <inst_352>:
    1be2:	ffff55b7          	lui	a1,0xffff5
    1be6:	afd58593          	addi	a1,a1,-1283 # ffff4afd <_end+0xfffefff9>
    1bea:	00600513          	li	a0,6
    1bee:	952e                	add	a0,a0,a1
    1bf0:	52a0a223          	sw	a0,1316(ra)

00001bf4 <inst_353>:
    1bf4:	0000b5b7          	lui	a1,0xb
    1bf8:	50558593          	addi	a1,a1,1285 # b505 <_end+0x6a01>
    1bfc:	00600513          	li	a0,6
    1c00:	952e                	add	a0,a0,a1
    1c02:	52a0a423          	sw	a0,1320(ra)

00001c06 <inst_354>:
    1c06:	00300593          	li	a1,3
    1c0a:	33333537          	lui	a0,0x33333
    1c0e:	33450513          	addi	a0,a0,820 # 33333334 <_end+0x3332e830>
    1c12:	952e                	add	a0,a0,a1
    1c14:	52a0a623          	sw	a0,1324(ra)

00001c18 <inst_355>:
    1c18:	555555b7          	lui	a1,0x55555
    1c1c:	55558593          	addi	a1,a1,1365 # 55555555 <_end+0x55550a51>
    1c20:	33333537          	lui	a0,0x33333
    1c24:	33450513          	addi	a0,a0,820 # 33333334 <_end+0x3332e830>
    1c28:	952e                	add	a0,a0,a1
    1c2a:	52a0a823          	sw	a0,1328(ra)

00001c2e <inst_356>:
    1c2e:	aaaab5b7          	lui	a1,0xaaaab
    1c32:	aaa58593          	addi	a1,a1,-1366 # aaaaaaaa <_end+0xaaaa5fa6>
    1c36:	33333537          	lui	a0,0x33333
    1c3a:	33450513          	addi	a0,a0,820 # 33333334 <_end+0x3332e830>
    1c3e:	952e                	add	a0,a0,a1
    1c40:	52a0aa23          	sw	a0,1332(ra)

00001c44 <inst_357>:
    1c44:	00500593          	li	a1,5
    1c48:	33333537          	lui	a0,0x33333
    1c4c:	33450513          	addi	a0,a0,820 # 33333334 <_end+0x3332e830>
    1c50:	952e                	add	a0,a0,a1
    1c52:	52a0ac23          	sw	a0,1336(ra)

00001c56 <inst_358>:
    1c56:	333335b7          	lui	a1,0x33333
    1c5a:	33358593          	addi	a1,a1,819 # 33333333 <_end+0x3332e82f>
    1c5e:	33333537          	lui	a0,0x33333
    1c62:	33450513          	addi	a0,a0,820 # 33333334 <_end+0x3332e830>
    1c66:	952e                	add	a0,a0,a1
    1c68:	52a0ae23          	sw	a0,1340(ra)

00001c6c <inst_359>:
    1c6c:	666665b7          	lui	a1,0x66666
    1c70:	66658593          	addi	a1,a1,1638 # 66666666 <_end+0x66661b62>
    1c74:	33333537          	lui	a0,0x33333
    1c78:	33450513          	addi	a0,a0,820 # 33333334 <_end+0x3332e830>
    1c7c:	952e                	add	a0,a0,a1
    1c7e:	54a0a023          	sw	a0,1344(ra)

00001c82 <inst_360>:
    1c82:	ffff55b7          	lui	a1,0xffff5
    1c86:	afc58593          	addi	a1,a1,-1284 # ffff4afc <_end+0xfffefff8>
    1c8a:	33333537          	lui	a0,0x33333
    1c8e:	33450513          	addi	a0,a0,820 # 33333334 <_end+0x3332e830>
    1c92:	952e                	add	a0,a0,a1
    1c94:	54a0a223          	sw	a0,1348(ra)

00001c98 <inst_361>:
    1c98:	0000b5b7          	lui	a1,0xb
    1c9c:	50458593          	addi	a1,a1,1284 # b504 <_end+0x6a00>
    1ca0:	33333537          	lui	a0,0x33333
    1ca4:	33450513          	addi	a0,a0,820 # 33333334 <_end+0x3332e830>
    1ca8:	952e                	add	a0,a0,a1
    1caa:	54a0a423          	sw	a0,1352(ra)

00001cae <inst_362>:
    1cae:	00200593          	li	a1,2
    1cb2:	33333537          	lui	a0,0x33333
    1cb6:	33450513          	addi	a0,a0,820 # 33333334 <_end+0x3332e830>
    1cba:	952e                	add	a0,a0,a1
    1cbc:	54a0a623          	sw	a0,1356(ra)

00001cc0 <inst_363>:
    1cc0:	555555b7          	lui	a1,0x55555
    1cc4:	55458593          	addi	a1,a1,1364 # 55555554 <_end+0x55550a50>
    1cc8:	33333537          	lui	a0,0x33333
    1ccc:	33450513          	addi	a0,a0,820 # 33333334 <_end+0x3332e830>
    1cd0:	952e                	add	a0,a0,a1
    1cd2:	54a0a823          	sw	a0,1360(ra)

00001cd6 <inst_364>:
    1cd6:	00000593          	li	a1,0
    1cda:	33333537          	lui	a0,0x33333
    1cde:	33450513          	addi	a0,a0,820 # 33333334 <_end+0x3332e830>
    1ce2:	952e                	add	a0,a0,a1
    1ce4:	54a0aa23          	sw	a0,1364(ra)

00001ce8 <inst_365>:
    1ce8:	00400593          	li	a1,4
    1cec:	33333537          	lui	a0,0x33333
    1cf0:	33450513          	addi	a0,a0,820 # 33333334 <_end+0x3332e830>
    1cf4:	952e                	add	a0,a0,a1
    1cf6:	54a0ac23          	sw	a0,1368(ra)

00001cfa <inst_366>:
    1cfa:	333335b7          	lui	a1,0x33333
    1cfe:	33258593          	addi	a1,a1,818 # 33333332 <_end+0x3332e82e>
    1d02:	33333537          	lui	a0,0x33333
    1d06:	33450513          	addi	a0,a0,820 # 33333334 <_end+0x3332e830>
    1d0a:	952e                	add	a0,a0,a1
    1d0c:	54a0ae23          	sw	a0,1372(ra)

00001d10 <inst_367>:
    1d10:	666665b7          	lui	a1,0x66666
    1d14:	66558593          	addi	a1,a1,1637 # 66666665 <_end+0x66661b61>
    1d18:	33333537          	lui	a0,0x33333
    1d1c:	33450513          	addi	a0,a0,820 # 33333334 <_end+0x3332e830>
    1d20:	952e                	add	a0,a0,a1
    1d22:	56a0a023          	sw	a0,1376(ra)

00001d26 <inst_368>:
    1d26:	0000b5b7          	lui	a1,0xb
    1d2a:	50358593          	addi	a1,a1,1283 # b503 <_end+0x69ff>
    1d2e:	33333537          	lui	a0,0x33333
    1d32:	33450513          	addi	a0,a0,820 # 33333334 <_end+0x3332e830>
    1d36:	952e                	add	a0,a0,a1
    1d38:	56a0a223          	sw	a0,1380(ra)

00001d3c <inst_369>:
    1d3c:	555555b7          	lui	a1,0x55555
    1d40:	55658593          	addi	a1,a1,1366 # 55555556 <_end+0x55550a52>
    1d44:	33333537          	lui	a0,0x33333
    1d48:	33450513          	addi	a0,a0,820 # 33333334 <_end+0x3332e830>
    1d4c:	952e                	add	a0,a0,a1
    1d4e:	56a0a423          	sw	a0,1384(ra)

00001d52 <inst_370>:
    1d52:	aaaab5b7          	lui	a1,0xaaaab
    1d56:	aab58593          	addi	a1,a1,-1365 # aaaaaaab <_end+0xaaaa5fa7>
    1d5a:	33333537          	lui	a0,0x33333
    1d5e:	33450513          	addi	a0,a0,820 # 33333334 <_end+0x3332e830>
    1d62:	952e                	add	a0,a0,a1
    1d64:	56a0a623          	sw	a0,1388(ra)

00001d68 <inst_371>:
    1d68:	00600593          	li	a1,6
    1d6c:	33333537          	lui	a0,0x33333
    1d70:	33450513          	addi	a0,a0,820 # 33333334 <_end+0x3332e830>
    1d74:	952e                	add	a0,a0,a1
    1d76:	56a0a823          	sw	a0,1392(ra)

00001d7a <inst_372>:
    1d7a:	333335b7          	lui	a1,0x33333
    1d7e:	33458593          	addi	a1,a1,820 # 33333334 <_end+0x3332e830>
    1d82:	33333537          	lui	a0,0x33333
    1d86:	33450513          	addi	a0,a0,820 # 33333334 <_end+0x3332e830>
    1d8a:	952e                	add	a0,a0,a1
    1d8c:	56a0aa23          	sw	a0,1396(ra)

00001d90 <inst_373>:
    1d90:	666665b7          	lui	a1,0x66666
    1d94:	66758593          	addi	a1,a1,1639 # 66666667 <_end+0x66661b63>
    1d98:	33333537          	lui	a0,0x33333
    1d9c:	33450513          	addi	a0,a0,820 # 33333334 <_end+0x3332e830>
    1da0:	952e                	add	a0,a0,a1
    1da2:	56a0ac23          	sw	a0,1400(ra)

00001da6 <inst_374>:
    1da6:	ffff55b7          	lui	a1,0xffff5
    1daa:	afd58593          	addi	a1,a1,-1283 # ffff4afd <_end+0xfffefff9>
    1dae:	33333537          	lui	a0,0x33333
    1db2:	33450513          	addi	a0,a0,820 # 33333334 <_end+0x3332e830>
    1db6:	952e                	add	a0,a0,a1
    1db8:	56a0ae23          	sw	a0,1404(ra)

00001dbc <inst_375>:
    1dbc:	0000b5b7          	lui	a1,0xb
    1dc0:	50558593          	addi	a1,a1,1285 # b505 <_end+0x6a01>
    1dc4:	33333537          	lui	a0,0x33333
    1dc8:	33450513          	addi	a0,a0,820 # 33333334 <_end+0x3332e830>
    1dcc:	952e                	add	a0,a0,a1
    1dce:	58a0a023          	sw	a0,1408(ra)

00001dd2 <inst_376>:
    1dd2:	00300593          	li	a1,3
    1dd6:	66666537          	lui	a0,0x66666
    1dda:	66750513          	addi	a0,a0,1639 # 66666667 <_end+0x66661b63>
    1dde:	952e                	add	a0,a0,a1
    1de0:	58a0a223          	sw	a0,1412(ra)

00001de4 <inst_377>:
    1de4:	555555b7          	lui	a1,0x55555
    1de8:	55558593          	addi	a1,a1,1365 # 55555555 <_end+0x55550a51>
    1dec:	66666537          	lui	a0,0x66666
    1df0:	66750513          	addi	a0,a0,1639 # 66666667 <_end+0x66661b63>
    1df4:	952e                	add	a0,a0,a1
    1df6:	58a0a423          	sw	a0,1416(ra)

00001dfa <inst_378>:
    1dfa:	aaaab5b7          	lui	a1,0xaaaab
    1dfe:	aaa58593          	addi	a1,a1,-1366 # aaaaaaaa <_end+0xaaaa5fa6>
    1e02:	66666537          	lui	a0,0x66666
    1e06:	66750513          	addi	a0,a0,1639 # 66666667 <_end+0x66661b63>
    1e0a:	952e                	add	a0,a0,a1
    1e0c:	58a0a623          	sw	a0,1420(ra)

00001e10 <inst_379>:
    1e10:	00500593          	li	a1,5
    1e14:	66666537          	lui	a0,0x66666
    1e18:	66750513          	addi	a0,a0,1639 # 66666667 <_end+0x66661b63>
    1e1c:	952e                	add	a0,a0,a1
    1e1e:	58a0a823          	sw	a0,1424(ra)

00001e22 <inst_380>:
    1e22:	333335b7          	lui	a1,0x33333
    1e26:	33358593          	addi	a1,a1,819 # 33333333 <_end+0x3332e82f>
    1e2a:	66666537          	lui	a0,0x66666
    1e2e:	66750513          	addi	a0,a0,1639 # 66666667 <_end+0x66661b63>
    1e32:	952e                	add	a0,a0,a1
    1e34:	58a0aa23          	sw	a0,1428(ra)

00001e38 <inst_381>:
    1e38:	666665b7          	lui	a1,0x66666
    1e3c:	66658593          	addi	a1,a1,1638 # 66666666 <_end+0x66661b62>
    1e40:	66666537          	lui	a0,0x66666
    1e44:	66750513          	addi	a0,a0,1639 # 66666667 <_end+0x66661b63>
    1e48:	952e                	add	a0,a0,a1
    1e4a:	58a0ac23          	sw	a0,1432(ra)

00001e4e <inst_382>:
    1e4e:	ffff55b7          	lui	a1,0xffff5
    1e52:	afc58593          	addi	a1,a1,-1284 # ffff4afc <_end+0xfffefff8>
    1e56:	66666537          	lui	a0,0x66666
    1e5a:	66750513          	addi	a0,a0,1639 # 66666667 <_end+0x66661b63>
    1e5e:	952e                	add	a0,a0,a1
    1e60:	58a0ae23          	sw	a0,1436(ra)

00001e64 <inst_383>:
    1e64:	0000b5b7          	lui	a1,0xb
    1e68:	50458593          	addi	a1,a1,1284 # b504 <_end+0x6a00>
    1e6c:	66666537          	lui	a0,0x66666
    1e70:	66750513          	addi	a0,a0,1639 # 66666667 <_end+0x66661b63>
    1e74:	952e                	add	a0,a0,a1
    1e76:	5aa0a023          	sw	a0,1440(ra)

00001e7a <inst_384>:
    1e7a:	00200593          	li	a1,2
    1e7e:	66666537          	lui	a0,0x66666
    1e82:	66750513          	addi	a0,a0,1639 # 66666667 <_end+0x66661b63>
    1e86:	952e                	add	a0,a0,a1
    1e88:	5aa0a223          	sw	a0,1444(ra)

00001e8c <inst_385>:
    1e8c:	555555b7          	lui	a1,0x55555
    1e90:	55458593          	addi	a1,a1,1364 # 55555554 <_end+0x55550a50>
    1e94:	66666537          	lui	a0,0x66666
    1e98:	66750513          	addi	a0,a0,1639 # 66666667 <_end+0x66661b63>
    1e9c:	952e                	add	a0,a0,a1
    1e9e:	5aa0a423          	sw	a0,1448(ra)

00001ea2 <inst_386>:
    1ea2:	00000593          	li	a1,0
    1ea6:	66666537          	lui	a0,0x66666
    1eaa:	66750513          	addi	a0,a0,1639 # 66666667 <_end+0x66661b63>
    1eae:	952e                	add	a0,a0,a1
    1eb0:	5aa0a623          	sw	a0,1452(ra)

00001eb4 <inst_387>:
    1eb4:	00400593          	li	a1,4
    1eb8:	66666537          	lui	a0,0x66666
    1ebc:	66750513          	addi	a0,a0,1639 # 66666667 <_end+0x66661b63>
    1ec0:	952e                	add	a0,a0,a1
    1ec2:	5aa0a823          	sw	a0,1456(ra)

00001ec6 <inst_388>:
    1ec6:	333335b7          	lui	a1,0x33333
    1eca:	33258593          	addi	a1,a1,818 # 33333332 <_end+0x3332e82e>
    1ece:	66666537          	lui	a0,0x66666
    1ed2:	66750513          	addi	a0,a0,1639 # 66666667 <_end+0x66661b63>
    1ed6:	952e                	add	a0,a0,a1
    1ed8:	5aa0aa23          	sw	a0,1460(ra)

00001edc <inst_389>:
    1edc:	666665b7          	lui	a1,0x66666
    1ee0:	66558593          	addi	a1,a1,1637 # 66666665 <_end+0x66661b61>
    1ee4:	66666537          	lui	a0,0x66666
    1ee8:	66750513          	addi	a0,a0,1639 # 66666667 <_end+0x66661b63>
    1eec:	952e                	add	a0,a0,a1
    1eee:	5aa0ac23          	sw	a0,1464(ra)

00001ef2 <inst_390>:
    1ef2:	0000b5b7          	lui	a1,0xb
    1ef6:	50358593          	addi	a1,a1,1283 # b503 <_end+0x69ff>
    1efa:	66666537          	lui	a0,0x66666
    1efe:	66750513          	addi	a0,a0,1639 # 66666667 <_end+0x66661b63>
    1f02:	952e                	add	a0,a0,a1
    1f04:	5aa0ae23          	sw	a0,1468(ra)

00001f08 <inst_391>:
    1f08:	555555b7          	lui	a1,0x55555
    1f0c:	55658593          	addi	a1,a1,1366 # 55555556 <_end+0x55550a52>
    1f10:	66666537          	lui	a0,0x66666
    1f14:	66750513          	addi	a0,a0,1639 # 66666667 <_end+0x66661b63>
    1f18:	952e                	add	a0,a0,a1
    1f1a:	5ca0a023          	sw	a0,1472(ra)

00001f1e <inst_392>:
    1f1e:	aaaab5b7          	lui	a1,0xaaaab
    1f22:	aab58593          	addi	a1,a1,-1365 # aaaaaaab <_end+0xaaaa5fa7>
    1f26:	66666537          	lui	a0,0x66666
    1f2a:	66750513          	addi	a0,a0,1639 # 66666667 <_end+0x66661b63>
    1f2e:	952e                	add	a0,a0,a1
    1f30:	5ca0a223          	sw	a0,1476(ra)

00001f34 <inst_393>:
    1f34:	00600593          	li	a1,6
    1f38:	66666537          	lui	a0,0x66666
    1f3c:	66750513          	addi	a0,a0,1639 # 66666667 <_end+0x66661b63>
    1f40:	952e                	add	a0,a0,a1
    1f42:	5ca0a423          	sw	a0,1480(ra)

00001f46 <inst_394>:
    1f46:	333335b7          	lui	a1,0x33333
    1f4a:	33458593          	addi	a1,a1,820 # 33333334 <_end+0x3332e830>
    1f4e:	66666537          	lui	a0,0x66666
    1f52:	66750513          	addi	a0,a0,1639 # 66666667 <_end+0x66661b63>
    1f56:	952e                	add	a0,a0,a1
    1f58:	5ca0a623          	sw	a0,1484(ra)

00001f5c <inst_395>:
    1f5c:	666665b7          	lui	a1,0x66666
    1f60:	66758593          	addi	a1,a1,1639 # 66666667 <_end+0x66661b63>
    1f64:	66666537          	lui	a0,0x66666
    1f68:	66750513          	addi	a0,a0,1639 # 66666667 <_end+0x66661b63>
    1f6c:	952e                	add	a0,a0,a1
    1f6e:	5ca0a823          	sw	a0,1488(ra)

00001f72 <inst_396>:
    1f72:	ffff55b7          	lui	a1,0xffff5
    1f76:	afd58593          	addi	a1,a1,-1283 # ffff4afd <_end+0xfffefff9>
    1f7a:	66666537          	lui	a0,0x66666
    1f7e:	66750513          	addi	a0,a0,1639 # 66666667 <_end+0x66661b63>
    1f82:	952e                	add	a0,a0,a1
    1f84:	5ca0aa23          	sw	a0,1492(ra)

00001f88 <inst_397>:
    1f88:	0000b5b7          	lui	a1,0xb
    1f8c:	50558593          	addi	a1,a1,1285 # b505 <_end+0x6a01>
    1f90:	66666537          	lui	a0,0x66666
    1f94:	66750513          	addi	a0,a0,1639 # 66666667 <_end+0x66661b63>
    1f98:	952e                	add	a0,a0,a1
    1f9a:	5ca0ac23          	sw	a0,1496(ra)

00001f9e <inst_398>:
    1f9e:	00300593          	li	a1,3
    1fa2:	ffff5537          	lui	a0,0xffff5
    1fa6:	afd50513          	addi	a0,a0,-1283 # ffff4afd <_end+0xfffefff9>
    1faa:	952e                	add	a0,a0,a1
    1fac:	5ca0ae23          	sw	a0,1500(ra)

00001fb0 <inst_399>:
    1fb0:	555555b7          	lui	a1,0x55555
    1fb4:	55558593          	addi	a1,a1,1365 # 55555555 <_end+0x55550a51>
    1fb8:	ffff5537          	lui	a0,0xffff5
    1fbc:	afd50513          	addi	a0,a0,-1283 # ffff4afd <_end+0xfffefff9>
    1fc0:	952e                	add	a0,a0,a1
    1fc2:	5ea0a023          	sw	a0,1504(ra)

00001fc6 <inst_400>:
    1fc6:	aaaab5b7          	lui	a1,0xaaaab
    1fca:	aaa58593          	addi	a1,a1,-1366 # aaaaaaaa <_end+0xaaaa5fa6>
    1fce:	ffff5537          	lui	a0,0xffff5
    1fd2:	afd50513          	addi	a0,a0,-1283 # ffff4afd <_end+0xfffefff9>
    1fd6:	952e                	add	a0,a0,a1
    1fd8:	5ea0a223          	sw	a0,1508(ra)

00001fdc <inst_401>:
    1fdc:	00500593          	li	a1,5
    1fe0:	ffff5537          	lui	a0,0xffff5
    1fe4:	afd50513          	addi	a0,a0,-1283 # ffff4afd <_end+0xfffefff9>
    1fe8:	952e                	add	a0,a0,a1
    1fea:	5ea0a423          	sw	a0,1512(ra)

00001fee <inst_402>:
    1fee:	333335b7          	lui	a1,0x33333
    1ff2:	33358593          	addi	a1,a1,819 # 33333333 <_end+0x3332e82f>
    1ff6:	ffff5537          	lui	a0,0xffff5
    1ffa:	afd50513          	addi	a0,a0,-1283 # ffff4afd <_end+0xfffefff9>
    1ffe:	952e                	add	a0,a0,a1
    2000:	5ea0a623          	sw	a0,1516(ra)

00002004 <inst_403>:
    2004:	666665b7          	lui	a1,0x66666
    2008:	66658593          	addi	a1,a1,1638 # 66666666 <_end+0x66661b62>
    200c:	ffff5537          	lui	a0,0xffff5
    2010:	afd50513          	addi	a0,a0,-1283 # ffff4afd <_end+0xfffefff9>
    2014:	952e                	add	a0,a0,a1
    2016:	5ea0a823          	sw	a0,1520(ra)

0000201a <inst_404>:
    201a:	ffff55b7          	lui	a1,0xffff5
    201e:	afc58593          	addi	a1,a1,-1284 # ffff4afc <_end+0xfffefff8>
    2022:	ffff5537          	lui	a0,0xffff5
    2026:	afd50513          	addi	a0,a0,-1283 # ffff4afd <_end+0xfffefff9>
    202a:	952e                	add	a0,a0,a1
    202c:	5ea0aa23          	sw	a0,1524(ra)

00002030 <inst_405>:
    2030:	0000b5b7          	lui	a1,0xb
    2034:	50458593          	addi	a1,a1,1284 # b504 <_end+0x6a00>
    2038:	ffff5537          	lui	a0,0xffff5
    203c:	afd50513          	addi	a0,a0,-1283 # ffff4afd <_end+0xfffefff9>
    2040:	952e                	add	a0,a0,a1
    2042:	5ea0ac23          	sw	a0,1528(ra)

00002046 <inst_406>:
    2046:	00200593          	li	a1,2
    204a:	ffff5537          	lui	a0,0xffff5
    204e:	afd50513          	addi	a0,a0,-1283 # ffff4afd <_end+0xfffefff9>
    2052:	952e                	add	a0,a0,a1
    2054:	5ea0ae23          	sw	a0,1532(ra)

00002058 <inst_407>:
    2058:	555555b7          	lui	a1,0x55555
    205c:	55458593          	addi	a1,a1,1364 # 55555554 <_end+0x55550a50>
    2060:	ffff5537          	lui	a0,0xffff5
    2064:	afd50513          	addi	a0,a0,-1283 # ffff4afd <_end+0xfffefff9>
    2068:	952e                	add	a0,a0,a1
    206a:	60a0a023          	sw	a0,1536(ra)

0000206e <inst_408>:
    206e:	00000593          	li	a1,0
    2072:	ffff5537          	lui	a0,0xffff5
    2076:	afd50513          	addi	a0,a0,-1283 # ffff4afd <_end+0xfffefff9>
    207a:	952e                	add	a0,a0,a1
    207c:	60a0a223          	sw	a0,1540(ra)

00002080 <inst_409>:
    2080:	00400593          	li	a1,4
    2084:	ffff5537          	lui	a0,0xffff5
    2088:	afd50513          	addi	a0,a0,-1283 # ffff4afd <_end+0xfffefff9>
    208c:	952e                	add	a0,a0,a1
    208e:	60a0a423          	sw	a0,1544(ra)

00002092 <inst_410>:
    2092:	333335b7          	lui	a1,0x33333
    2096:	33258593          	addi	a1,a1,818 # 33333332 <_end+0x3332e82e>
    209a:	ffff5537          	lui	a0,0xffff5
    209e:	afd50513          	addi	a0,a0,-1283 # ffff4afd <_end+0xfffefff9>
    20a2:	952e                	add	a0,a0,a1
    20a4:	60a0a623          	sw	a0,1548(ra)

000020a8 <inst_411>:
    20a8:	666665b7          	lui	a1,0x66666
    20ac:	66558593          	addi	a1,a1,1637 # 66666665 <_end+0x66661b61>
    20b0:	ffff5537          	lui	a0,0xffff5
    20b4:	afd50513          	addi	a0,a0,-1283 # ffff4afd <_end+0xfffefff9>
    20b8:	952e                	add	a0,a0,a1
    20ba:	60a0a823          	sw	a0,1552(ra)

000020be <inst_412>:
    20be:	0000b5b7          	lui	a1,0xb
    20c2:	50358593          	addi	a1,a1,1283 # b503 <_end+0x69ff>
    20c6:	ffff5537          	lui	a0,0xffff5
    20ca:	afd50513          	addi	a0,a0,-1283 # ffff4afd <_end+0xfffefff9>
    20ce:	952e                	add	a0,a0,a1
    20d0:	60a0aa23          	sw	a0,1556(ra)

000020d4 <inst_413>:
    20d4:	555555b7          	lui	a1,0x55555
    20d8:	55658593          	addi	a1,a1,1366 # 55555556 <_end+0x55550a52>
    20dc:	ffff5537          	lui	a0,0xffff5
    20e0:	afd50513          	addi	a0,a0,-1283 # ffff4afd <_end+0xfffefff9>
    20e4:	952e                	add	a0,a0,a1
    20e6:	60a0ac23          	sw	a0,1560(ra)

000020ea <inst_414>:
    20ea:	aaaab5b7          	lui	a1,0xaaaab
    20ee:	aab58593          	addi	a1,a1,-1365 # aaaaaaab <_end+0xaaaa5fa7>
    20f2:	ffff5537          	lui	a0,0xffff5
    20f6:	afd50513          	addi	a0,a0,-1283 # ffff4afd <_end+0xfffefff9>
    20fa:	952e                	add	a0,a0,a1
    20fc:	60a0ae23          	sw	a0,1564(ra)

00002100 <inst_415>:
    2100:	00600593          	li	a1,6
    2104:	ffff5537          	lui	a0,0xffff5
    2108:	afd50513          	addi	a0,a0,-1283 # ffff4afd <_end+0xfffefff9>
    210c:	952e                	add	a0,a0,a1
    210e:	62a0a023          	sw	a0,1568(ra)

00002112 <inst_416>:
    2112:	333335b7          	lui	a1,0x33333
    2116:	33458593          	addi	a1,a1,820 # 33333334 <_end+0x3332e830>
    211a:	ffff5537          	lui	a0,0xffff5
    211e:	afd50513          	addi	a0,a0,-1283 # ffff4afd <_end+0xfffefff9>
    2122:	952e                	add	a0,a0,a1
    2124:	62a0a223          	sw	a0,1572(ra)

00002128 <inst_417>:
    2128:	666665b7          	lui	a1,0x66666
    212c:	66758593          	addi	a1,a1,1639 # 66666667 <_end+0x66661b63>
    2130:	ffff5537          	lui	a0,0xffff5
    2134:	afd50513          	addi	a0,a0,-1283 # ffff4afd <_end+0xfffefff9>
    2138:	952e                	add	a0,a0,a1
    213a:	62a0a423          	sw	a0,1576(ra)

0000213e <inst_418>:
    213e:	ffff55b7          	lui	a1,0xffff5
    2142:	afd58593          	addi	a1,a1,-1283 # ffff4afd <_end+0xfffefff9>
    2146:	ffff5537          	lui	a0,0xffff5
    214a:	afd50513          	addi	a0,a0,-1283 # ffff4afd <_end+0xfffefff9>
    214e:	952e                	add	a0,a0,a1
    2150:	62a0a623          	sw	a0,1580(ra)

00002154 <inst_419>:
    2154:	0000b5b7          	lui	a1,0xb
    2158:	50558593          	addi	a1,a1,1285 # b505 <_end+0x6a01>
    215c:	ffff5537          	lui	a0,0xffff5
    2160:	afd50513          	addi	a0,a0,-1283 # ffff4afd <_end+0xfffefff9>
    2164:	952e                	add	a0,a0,a1
    2166:	62a0a823          	sw	a0,1584(ra)

0000216a <inst_420>:
    216a:	00300593          	li	a1,3
    216e:	0000b537          	lui	a0,0xb
    2172:	50550513          	addi	a0,a0,1285 # b505 <_end+0x6a01>
    2176:	952e                	add	a0,a0,a1
    2178:	62a0aa23          	sw	a0,1588(ra)

0000217c <inst_421>:
    217c:	555555b7          	lui	a1,0x55555
    2180:	55558593          	addi	a1,a1,1365 # 55555555 <_end+0x55550a51>
    2184:	0000b537          	lui	a0,0xb
    2188:	50550513          	addi	a0,a0,1285 # b505 <_end+0x6a01>
    218c:	952e                	add	a0,a0,a1
    218e:	62a0ac23          	sw	a0,1592(ra)

00002192 <inst_422>:
    2192:	aaaab5b7          	lui	a1,0xaaaab
    2196:	aaa58593          	addi	a1,a1,-1366 # aaaaaaaa <_end+0xaaaa5fa6>
    219a:	0000b537          	lui	a0,0xb
    219e:	50550513          	addi	a0,a0,1285 # b505 <_end+0x6a01>
    21a2:	952e                	add	a0,a0,a1
    21a4:	62a0ae23          	sw	a0,1596(ra)

000021a8 <inst_423>:
    21a8:	00500593          	li	a1,5
    21ac:	0000b537          	lui	a0,0xb
    21b0:	50550513          	addi	a0,a0,1285 # b505 <_end+0x6a01>
    21b4:	952e                	add	a0,a0,a1
    21b6:	64a0a023          	sw	a0,1600(ra)

000021ba <inst_424>:
    21ba:	333335b7          	lui	a1,0x33333
    21be:	33358593          	addi	a1,a1,819 # 33333333 <_end+0x3332e82f>
    21c2:	0000b537          	lui	a0,0xb
    21c6:	50550513          	addi	a0,a0,1285 # b505 <_end+0x6a01>
    21ca:	952e                	add	a0,a0,a1
    21cc:	64a0a223          	sw	a0,1604(ra)

000021d0 <inst_425>:
    21d0:	666665b7          	lui	a1,0x66666
    21d4:	66658593          	addi	a1,a1,1638 # 66666666 <_end+0x66661b62>
    21d8:	0000b537          	lui	a0,0xb
    21dc:	50550513          	addi	a0,a0,1285 # b505 <_end+0x6a01>
    21e0:	952e                	add	a0,a0,a1
    21e2:	64a0a423          	sw	a0,1608(ra)

000021e6 <inst_426>:
    21e6:	ffff55b7          	lui	a1,0xffff5
    21ea:	afc58593          	addi	a1,a1,-1284 # ffff4afc <_end+0xfffefff8>
    21ee:	0000b537          	lui	a0,0xb
    21f2:	50550513          	addi	a0,a0,1285 # b505 <_end+0x6a01>
    21f6:	952e                	add	a0,a0,a1
    21f8:	64a0a623          	sw	a0,1612(ra)

000021fc <inst_427>:
    21fc:	0000b5b7          	lui	a1,0xb
    2200:	50458593          	addi	a1,a1,1284 # b504 <_end+0x6a00>
    2204:	0000b537          	lui	a0,0xb
    2208:	50550513          	addi	a0,a0,1285 # b505 <_end+0x6a01>
    220c:	952e                	add	a0,a0,a1
    220e:	64a0a823          	sw	a0,1616(ra)

00002212 <inst_428>:
    2212:	00200593          	li	a1,2
    2216:	0000b537          	lui	a0,0xb
    221a:	50550513          	addi	a0,a0,1285 # b505 <_end+0x6a01>
    221e:	952e                	add	a0,a0,a1
    2220:	64a0aa23          	sw	a0,1620(ra)

00002224 <inst_429>:
    2224:	555555b7          	lui	a1,0x55555
    2228:	55458593          	addi	a1,a1,1364 # 55555554 <_end+0x55550a50>
    222c:	0000b537          	lui	a0,0xb
    2230:	50550513          	addi	a0,a0,1285 # b505 <_end+0x6a01>
    2234:	952e                	add	a0,a0,a1
    2236:	64a0ac23          	sw	a0,1624(ra)

0000223a <inst_430>:
    223a:	00000593          	li	a1,0
    223e:	0000b537          	lui	a0,0xb
    2242:	50550513          	addi	a0,a0,1285 # b505 <_end+0x6a01>
    2246:	952e                	add	a0,a0,a1
    2248:	64a0ae23          	sw	a0,1628(ra)

0000224c <inst_431>:
    224c:	00400593          	li	a1,4
    2250:	0000b537          	lui	a0,0xb
    2254:	50550513          	addi	a0,a0,1285 # b505 <_end+0x6a01>
    2258:	952e                	add	a0,a0,a1
    225a:	66a0a023          	sw	a0,1632(ra)

0000225e <inst_432>:
    225e:	333335b7          	lui	a1,0x33333
    2262:	33258593          	addi	a1,a1,818 # 33333332 <_end+0x3332e82e>
    2266:	0000b537          	lui	a0,0xb
    226a:	50550513          	addi	a0,a0,1285 # b505 <_end+0x6a01>
    226e:	952e                	add	a0,a0,a1
    2270:	66a0a223          	sw	a0,1636(ra)

00002274 <inst_433>:
    2274:	666665b7          	lui	a1,0x66666
    2278:	66558593          	addi	a1,a1,1637 # 66666665 <_end+0x66661b61>
    227c:	0000b537          	lui	a0,0xb
    2280:	50550513          	addi	a0,a0,1285 # b505 <_end+0x6a01>
    2284:	952e                	add	a0,a0,a1
    2286:	66a0a423          	sw	a0,1640(ra)

0000228a <inst_434>:
    228a:	0000b5b7          	lui	a1,0xb
    228e:	50358593          	addi	a1,a1,1283 # b503 <_end+0x69ff>
    2292:	0000b537          	lui	a0,0xb
    2296:	50550513          	addi	a0,a0,1285 # b505 <_end+0x6a01>
    229a:	952e                	add	a0,a0,a1
    229c:	66a0a623          	sw	a0,1644(ra)

000022a0 <inst_435>:
    22a0:	555555b7          	lui	a1,0x55555
    22a4:	55658593          	addi	a1,a1,1366 # 55555556 <_end+0x55550a52>
    22a8:	0000b537          	lui	a0,0xb
    22ac:	50550513          	addi	a0,a0,1285 # b505 <_end+0x6a01>
    22b0:	952e                	add	a0,a0,a1
    22b2:	66a0a823          	sw	a0,1648(ra)

000022b6 <inst_436>:
    22b6:	aaaab5b7          	lui	a1,0xaaaab
    22ba:	aab58593          	addi	a1,a1,-1365 # aaaaaaab <_end+0xaaaa5fa7>
    22be:	0000b537          	lui	a0,0xb
    22c2:	50550513          	addi	a0,a0,1285 # b505 <_end+0x6a01>
    22c6:	952e                	add	a0,a0,a1
    22c8:	66a0aa23          	sw	a0,1652(ra)

000022cc <inst_437>:
    22cc:	00600593          	li	a1,6
    22d0:	0000b537          	lui	a0,0xb
    22d4:	50550513          	addi	a0,a0,1285 # b505 <_end+0x6a01>
    22d8:	952e                	add	a0,a0,a1
    22da:	66a0ac23          	sw	a0,1656(ra)

000022de <inst_438>:
    22de:	333335b7          	lui	a1,0x33333
    22e2:	33458593          	addi	a1,a1,820 # 33333334 <_end+0x3332e830>
    22e6:	0000b537          	lui	a0,0xb
    22ea:	50550513          	addi	a0,a0,1285 # b505 <_end+0x6a01>
    22ee:	952e                	add	a0,a0,a1
    22f0:	66a0ae23          	sw	a0,1660(ra)

000022f4 <inst_439>:
    22f4:	666665b7          	lui	a1,0x66666
    22f8:	66758593          	addi	a1,a1,1639 # 66666667 <_end+0x66661b63>
    22fc:	0000b537          	lui	a0,0xb
    2300:	50550513          	addi	a0,a0,1285 # b505 <_end+0x6a01>
    2304:	952e                	add	a0,a0,a1
    2306:	68a0a023          	sw	a0,1664(ra)

0000230a <inst_440>:
    230a:	ffff55b7          	lui	a1,0xffff5
    230e:	afd58593          	addi	a1,a1,-1283 # ffff4afd <_end+0xfffefff9>
    2312:	0000b537          	lui	a0,0xb
    2316:	50550513          	addi	a0,a0,1285 # b505 <_end+0x6a01>
    231a:	952e                	add	a0,a0,a1
    231c:	68a0a223          	sw	a0,1668(ra)

00002320 <inst_441>:
    2320:	0000b5b7          	lui	a1,0xb
    2324:	50558593          	addi	a1,a1,1285 # b505 <_end+0x6a01>
    2328:	0000b537          	lui	a0,0xb
    232c:	50550513          	addi	a0,a0,1285 # b505 <_end+0x6a01>
    2330:	952e                	add	a0,a0,a1
    2332:	68a0a423          	sw	a0,1672(ra)

00002336 <inst_442>:
    2336:	555555b7          	lui	a1,0x55555
    233a:	55458593          	addi	a1,a1,1364 # 55555554 <_end+0x55550a50>
    233e:	00000513          	li	a0,0
    2342:	952e                	add	a0,a0,a1
    2344:	68a0a623          	sw	a0,1676(ra)

00002348 <inst_443>:
    2348:	00000593          	li	a1,0
    234c:	00000513          	li	a0,0
    2350:	952e                	add	a0,a0,a1
    2352:	68a0a823          	sw	a0,1680(ra)

00002356 <inst_444>:
    2356:	00400593          	li	a1,4
    235a:	00000513          	li	a0,0
    235e:	952e                	add	a0,a0,a1
    2360:	68a0aa23          	sw	a0,1684(ra)

00002364 <inst_445>:
    2364:	333335b7          	lui	a1,0x33333
    2368:	33258593          	addi	a1,a1,818 # 33333332 <_end+0x3332e82e>
    236c:	00000513          	li	a0,0
    2370:	952e                	add	a0,a0,a1
    2372:	68a0ac23          	sw	a0,1688(ra)

00002376 <inst_446>:
    2376:	666665b7          	lui	a1,0x66666
    237a:	66558593          	addi	a1,a1,1637 # 66666665 <_end+0x66661b61>
    237e:	00000513          	li	a0,0
    2382:	952e                	add	a0,a0,a1
    2384:	68a0ae23          	sw	a0,1692(ra)

00002388 <inst_447>:
    2388:	0000b5b7          	lui	a1,0xb
    238c:	50358593          	addi	a1,a1,1283 # b503 <_end+0x69ff>
    2390:	00000513          	li	a0,0
    2394:	952e                	add	a0,a0,a1
    2396:	6aa0a023          	sw	a0,1696(ra)

0000239a <inst_448>:
    239a:	555555b7          	lui	a1,0x55555
    239e:	55658593          	addi	a1,a1,1366 # 55555556 <_end+0x55550a52>
    23a2:	00000513          	li	a0,0
    23a6:	952e                	add	a0,a0,a1
    23a8:	6aa0a223          	sw	a0,1700(ra)

000023ac <inst_449>:
    23ac:	aaaab5b7          	lui	a1,0xaaaab
    23b0:	aab58593          	addi	a1,a1,-1365 # aaaaaaab <_end+0xaaaa5fa7>
    23b4:	00000513          	li	a0,0
    23b8:	952e                	add	a0,a0,a1
    23ba:	6aa0a423          	sw	a0,1704(ra)

000023be <inst_450>:
    23be:	00600593          	li	a1,6
    23c2:	00000513          	li	a0,0
    23c6:	952e                	add	a0,a0,a1
    23c8:	6aa0a623          	sw	a0,1708(ra)

000023cc <inst_451>:
    23cc:	333335b7          	lui	a1,0x33333
    23d0:	33458593          	addi	a1,a1,820 # 33333334 <_end+0x3332e830>
    23d4:	00000513          	li	a0,0
    23d8:	952e                	add	a0,a0,a1
    23da:	6aa0a823          	sw	a0,1712(ra)

000023de <inst_452>:
    23de:	666665b7          	lui	a1,0x66666
    23e2:	66758593          	addi	a1,a1,1639 # 66666667 <_end+0x66661b63>
    23e6:	00000513          	li	a0,0
    23ea:	952e                	add	a0,a0,a1
    23ec:	6aa0aa23          	sw	a0,1716(ra)

000023f0 <inst_453>:
    23f0:	ffff55b7          	lui	a1,0xffff5
    23f4:	afd58593          	addi	a1,a1,-1283 # ffff4afd <_end+0xfffefff9>
    23f8:	00000513          	li	a0,0
    23fc:	952e                	add	a0,a0,a1
    23fe:	6aa0ac23          	sw	a0,1720(ra)

00002402 <inst_454>:
    2402:	0000b5b7          	lui	a1,0xb
    2406:	50558593          	addi	a1,a1,1285 # b505 <_end+0x6a01>
    240a:	00000513          	li	a0,0
    240e:	952e                	add	a0,a0,a1
    2410:	6aa0ae23          	sw	a0,1724(ra)

00002414 <inst_455>:
    2414:	00300593          	li	a1,3
    2418:	00400513          	li	a0,4
    241c:	952e                	add	a0,a0,a1
    241e:	6ca0a023          	sw	a0,1728(ra)

00002422 <inst_456>:
    2422:	555555b7          	lui	a1,0x55555
    2426:	55558593          	addi	a1,a1,1365 # 55555555 <_end+0x55550a51>
    242a:	00400513          	li	a0,4
    242e:	952e                	add	a0,a0,a1
    2430:	6ca0a223          	sw	a0,1732(ra)

00002434 <inst_457>:
    2434:	aaaab5b7          	lui	a1,0xaaaab
    2438:	aaa58593          	addi	a1,a1,-1366 # aaaaaaaa <_end+0xaaaa5fa6>
    243c:	00400513          	li	a0,4
    2440:	952e                	add	a0,a0,a1
    2442:	6ca0a423          	sw	a0,1736(ra)

00002446 <inst_458>:
    2446:	00500593          	li	a1,5
    244a:	00400513          	li	a0,4
    244e:	952e                	add	a0,a0,a1
    2450:	6ca0a623          	sw	a0,1740(ra)

00002454 <inst_459>:
    2454:	333335b7          	lui	a1,0x33333
    2458:	33358593          	addi	a1,a1,819 # 33333333 <_end+0x3332e82f>
    245c:	00400513          	li	a0,4
    2460:	952e                	add	a0,a0,a1
    2462:	6ca0a823          	sw	a0,1744(ra)

00002466 <inst_460>:
    2466:	666665b7          	lui	a1,0x66666
    246a:	66658593          	addi	a1,a1,1638 # 66666666 <_end+0x66661b62>
    246e:	00400513          	li	a0,4
    2472:	952e                	add	a0,a0,a1
    2474:	6ca0aa23          	sw	a0,1748(ra)

00002478 <inst_461>:
    2478:	ffff55b7          	lui	a1,0xffff5
    247c:	afc58593          	addi	a1,a1,-1284 # ffff4afc <_end+0xfffefff8>
    2480:	00400513          	li	a0,4
    2484:	952e                	add	a0,a0,a1
    2486:	6ca0ac23          	sw	a0,1752(ra)

0000248a <inst_462>:
    248a:	0000b5b7          	lui	a1,0xb
    248e:	50458593          	addi	a1,a1,1284 # b504 <_end+0x6a00>
    2492:	00400513          	li	a0,4
    2496:	952e                	add	a0,a0,a1
    2498:	6ca0ae23          	sw	a0,1756(ra)

0000249c <inst_463>:
    249c:	00200593          	li	a1,2
    24a0:	00400513          	li	a0,4
    24a4:	952e                	add	a0,a0,a1
    24a6:	6ea0a023          	sw	a0,1760(ra)

000024aa <inst_464>:
    24aa:	555555b7          	lui	a1,0x55555
    24ae:	55458593          	addi	a1,a1,1364 # 55555554 <_end+0x55550a50>
    24b2:	00400513          	li	a0,4
    24b6:	952e                	add	a0,a0,a1
    24b8:	6ea0a223          	sw	a0,1764(ra)

000024bc <inst_465>:
    24bc:	00000593          	li	a1,0
    24c0:	00400513          	li	a0,4
    24c4:	952e                	add	a0,a0,a1
    24c6:	6ea0a423          	sw	a0,1768(ra)

000024ca <inst_466>:
    24ca:	00400593          	li	a1,4
    24ce:	00400513          	li	a0,4
    24d2:	952e                	add	a0,a0,a1
    24d4:	6ea0a623          	sw	a0,1772(ra)

000024d8 <inst_467>:
    24d8:	333335b7          	lui	a1,0x33333
    24dc:	33258593          	addi	a1,a1,818 # 33333332 <_end+0x3332e82e>
    24e0:	00400513          	li	a0,4
    24e4:	952e                	add	a0,a0,a1
    24e6:	6ea0a823          	sw	a0,1776(ra)

000024ea <inst_468>:
    24ea:	666665b7          	lui	a1,0x66666
    24ee:	66558593          	addi	a1,a1,1637 # 66666665 <_end+0x66661b61>
    24f2:	00400513          	li	a0,4
    24f6:	952e                	add	a0,a0,a1
    24f8:	6ea0aa23          	sw	a0,1780(ra)

000024fc <inst_469>:
    24fc:	0000b5b7          	lui	a1,0xb
    2500:	50358593          	addi	a1,a1,1283 # b503 <_end+0x69ff>
    2504:	00400513          	li	a0,4
    2508:	952e                	add	a0,a0,a1
    250a:	6ea0ac23          	sw	a0,1784(ra)

0000250e <inst_470>:
    250e:	555555b7          	lui	a1,0x55555
    2512:	55658593          	addi	a1,a1,1366 # 55555556 <_end+0x55550a52>
    2516:	00400513          	li	a0,4
    251a:	952e                	add	a0,a0,a1
    251c:	6ea0ae23          	sw	a0,1788(ra)

00002520 <inst_471>:
    2520:	aaaab5b7          	lui	a1,0xaaaab
    2524:	aab58593          	addi	a1,a1,-1365 # aaaaaaab <_end+0xaaaa5fa7>
    2528:	00400513          	li	a0,4
    252c:	952e                	add	a0,a0,a1
    252e:	70a0a023          	sw	a0,1792(ra)

00002532 <inst_472>:
    2532:	00600593          	li	a1,6
    2536:	00400513          	li	a0,4
    253a:	952e                	add	a0,a0,a1
    253c:	70a0a223          	sw	a0,1796(ra)

00002540 <inst_473>:
    2540:	333335b7          	lui	a1,0x33333
    2544:	33458593          	addi	a1,a1,820 # 33333334 <_end+0x3332e830>
    2548:	00400513          	li	a0,4
    254c:	952e                	add	a0,a0,a1
    254e:	70a0a423          	sw	a0,1800(ra)

00002552 <inst_474>:
    2552:	666665b7          	lui	a1,0x66666
    2556:	66758593          	addi	a1,a1,1639 # 66666667 <_end+0x66661b63>
    255a:	00400513          	li	a0,4
    255e:	952e                	add	a0,a0,a1
    2560:	70a0a623          	sw	a0,1804(ra)

00002564 <inst_475>:
    2564:	ffff55b7          	lui	a1,0xffff5
    2568:	afd58593          	addi	a1,a1,-1283 # ffff4afd <_end+0xfffefff9>
    256c:	00400513          	li	a0,4
    2570:	952e                	add	a0,a0,a1
    2572:	70a0a823          	sw	a0,1808(ra)

00002576 <inst_476>:
    2576:	0000b5b7          	lui	a1,0xb
    257a:	50558593          	addi	a1,a1,1285 # b505 <_end+0x6a01>
    257e:	00400513          	li	a0,4
    2582:	952e                	add	a0,a0,a1
    2584:	70a0aa23          	sw	a0,1812(ra)

00002588 <inst_477>:
    2588:	00300593          	li	a1,3
    258c:	33333537          	lui	a0,0x33333
    2590:	33250513          	addi	a0,a0,818 # 33333332 <_end+0x3332e82e>
    2594:	952e                	add	a0,a0,a1
    2596:	70a0ac23          	sw	a0,1816(ra)

0000259a <inst_478>:
    259a:	555555b7          	lui	a1,0x55555
    259e:	55558593          	addi	a1,a1,1365 # 55555555 <_end+0x55550a51>
    25a2:	33333537          	lui	a0,0x33333
    25a6:	33250513          	addi	a0,a0,818 # 33333332 <_end+0x3332e82e>
    25aa:	952e                	add	a0,a0,a1
    25ac:	70a0ae23          	sw	a0,1820(ra)

000025b0 <inst_479>:
    25b0:	aaaab5b7          	lui	a1,0xaaaab
    25b4:	aaa58593          	addi	a1,a1,-1366 # aaaaaaaa <_end+0xaaaa5fa6>
    25b8:	33333537          	lui	a0,0x33333
    25bc:	33250513          	addi	a0,a0,818 # 33333332 <_end+0x3332e82e>
    25c0:	952e                	add	a0,a0,a1
    25c2:	72a0a023          	sw	a0,1824(ra)

000025c6 <inst_480>:
    25c6:	00500593          	li	a1,5
    25ca:	33333537          	lui	a0,0x33333
    25ce:	33250513          	addi	a0,a0,818 # 33333332 <_end+0x3332e82e>
    25d2:	952e                	add	a0,a0,a1
    25d4:	72a0a223          	sw	a0,1828(ra)

000025d8 <inst_481>:
    25d8:	333335b7          	lui	a1,0x33333
    25dc:	33358593          	addi	a1,a1,819 # 33333333 <_end+0x3332e82f>
    25e0:	33333537          	lui	a0,0x33333
    25e4:	33250513          	addi	a0,a0,818 # 33333332 <_end+0x3332e82e>
    25e8:	952e                	add	a0,a0,a1
    25ea:	72a0a423          	sw	a0,1832(ra)

000025ee <inst_482>:
    25ee:	666665b7          	lui	a1,0x66666
    25f2:	66658593          	addi	a1,a1,1638 # 66666666 <_end+0x66661b62>
    25f6:	33333537          	lui	a0,0x33333
    25fa:	33250513          	addi	a0,a0,818 # 33333332 <_end+0x3332e82e>
    25fe:	952e                	add	a0,a0,a1
    2600:	72a0a623          	sw	a0,1836(ra)

00002604 <inst_483>:
    2604:	ffff55b7          	lui	a1,0xffff5
    2608:	afc58593          	addi	a1,a1,-1284 # ffff4afc <_end+0xfffefff8>
    260c:	33333537          	lui	a0,0x33333
    2610:	33250513          	addi	a0,a0,818 # 33333332 <_end+0x3332e82e>
    2614:	952e                	add	a0,a0,a1
    2616:	72a0a823          	sw	a0,1840(ra)

0000261a <inst_484>:
    261a:	0000b5b7          	lui	a1,0xb
    261e:	50458593          	addi	a1,a1,1284 # b504 <_end+0x6a00>
    2622:	33333537          	lui	a0,0x33333
    2626:	33250513          	addi	a0,a0,818 # 33333332 <_end+0x3332e82e>
    262a:	952e                	add	a0,a0,a1
    262c:	72a0aa23          	sw	a0,1844(ra)

00002630 <inst_485>:
    2630:	00200593          	li	a1,2
    2634:	33333537          	lui	a0,0x33333
    2638:	33250513          	addi	a0,a0,818 # 33333332 <_end+0x3332e82e>
    263c:	952e                	add	a0,a0,a1
    263e:	72a0ac23          	sw	a0,1848(ra)

00002642 <inst_486>:
    2642:	555555b7          	lui	a1,0x55555
    2646:	55458593          	addi	a1,a1,1364 # 55555554 <_end+0x55550a50>
    264a:	33333537          	lui	a0,0x33333
    264e:	33250513          	addi	a0,a0,818 # 33333332 <_end+0x3332e82e>
    2652:	952e                	add	a0,a0,a1
    2654:	72a0ae23          	sw	a0,1852(ra)

00002658 <inst_487>:
    2658:	00000593          	li	a1,0
    265c:	33333537          	lui	a0,0x33333
    2660:	33250513          	addi	a0,a0,818 # 33333332 <_end+0x3332e82e>
    2664:	952e                	add	a0,a0,a1
    2666:	74a0a023          	sw	a0,1856(ra)

0000266a <inst_488>:
    266a:	00400593          	li	a1,4
    266e:	33333537          	lui	a0,0x33333
    2672:	33250513          	addi	a0,a0,818 # 33333332 <_end+0x3332e82e>
    2676:	952e                	add	a0,a0,a1
    2678:	74a0a223          	sw	a0,1860(ra)

0000267c <inst_489>:
    267c:	333335b7          	lui	a1,0x33333
    2680:	33258593          	addi	a1,a1,818 # 33333332 <_end+0x3332e82e>
    2684:	33333537          	lui	a0,0x33333
    2688:	33250513          	addi	a0,a0,818 # 33333332 <_end+0x3332e82e>
    268c:	952e                	add	a0,a0,a1
    268e:	74a0a423          	sw	a0,1864(ra)

00002692 <inst_490>:
    2692:	666665b7          	lui	a1,0x66666
    2696:	66558593          	addi	a1,a1,1637 # 66666665 <_end+0x66661b61>
    269a:	33333537          	lui	a0,0x33333
    269e:	33250513          	addi	a0,a0,818 # 33333332 <_end+0x3332e82e>
    26a2:	952e                	add	a0,a0,a1
    26a4:	74a0a623          	sw	a0,1868(ra)

000026a8 <inst_491>:
    26a8:	0000b5b7          	lui	a1,0xb
    26ac:	50358593          	addi	a1,a1,1283 # b503 <_end+0x69ff>
    26b0:	33333537          	lui	a0,0x33333
    26b4:	33250513          	addi	a0,a0,818 # 33333332 <_end+0x3332e82e>
    26b8:	952e                	add	a0,a0,a1
    26ba:	74a0a823          	sw	a0,1872(ra)

000026be <inst_492>:
    26be:	555555b7          	lui	a1,0x55555
    26c2:	55658593          	addi	a1,a1,1366 # 55555556 <_end+0x55550a52>
    26c6:	33333537          	lui	a0,0x33333
    26ca:	33250513          	addi	a0,a0,818 # 33333332 <_end+0x3332e82e>
    26ce:	952e                	add	a0,a0,a1
    26d0:	74a0aa23          	sw	a0,1876(ra)

000026d4 <inst_493>:
    26d4:	aaaab5b7          	lui	a1,0xaaaab
    26d8:	aab58593          	addi	a1,a1,-1365 # aaaaaaab <_end+0xaaaa5fa7>
    26dc:	33333537          	lui	a0,0x33333
    26e0:	33250513          	addi	a0,a0,818 # 33333332 <_end+0x3332e82e>
    26e4:	952e                	add	a0,a0,a1
    26e6:	74a0ac23          	sw	a0,1880(ra)

000026ea <inst_494>:
    26ea:	00600593          	li	a1,6
    26ee:	33333537          	lui	a0,0x33333
    26f2:	33250513          	addi	a0,a0,818 # 33333332 <_end+0x3332e82e>
    26f6:	952e                	add	a0,a0,a1
    26f8:	74a0ae23          	sw	a0,1884(ra)

000026fc <inst_495>:
    26fc:	333335b7          	lui	a1,0x33333
    2700:	33458593          	addi	a1,a1,820 # 33333334 <_end+0x3332e830>
    2704:	33333537          	lui	a0,0x33333
    2708:	33250513          	addi	a0,a0,818 # 33333332 <_end+0x3332e82e>
    270c:	952e                	add	a0,a0,a1
    270e:	76a0a023          	sw	a0,1888(ra)

00002712 <inst_496>:
    2712:	666665b7          	lui	a1,0x66666
    2716:	66758593          	addi	a1,a1,1639 # 66666667 <_end+0x66661b63>
    271a:	33333537          	lui	a0,0x33333
    271e:	33250513          	addi	a0,a0,818 # 33333332 <_end+0x3332e82e>
    2722:	952e                	add	a0,a0,a1
    2724:	76a0a223          	sw	a0,1892(ra)

00002728 <inst_497>:
    2728:	ffff55b7          	lui	a1,0xffff5
    272c:	afd58593          	addi	a1,a1,-1283 # ffff4afd <_end+0xfffefff9>
    2730:	33333537          	lui	a0,0x33333
    2734:	33250513          	addi	a0,a0,818 # 33333332 <_end+0x3332e82e>
    2738:	952e                	add	a0,a0,a1
    273a:	76a0a423          	sw	a0,1896(ra)

0000273e <inst_498>:
    273e:	0000b5b7          	lui	a1,0xb
    2742:	50558593          	addi	a1,a1,1285 # b505 <_end+0x6a01>
    2746:	33333537          	lui	a0,0x33333
    274a:	33250513          	addi	a0,a0,818 # 33333332 <_end+0x3332e82e>
    274e:	952e                	add	a0,a0,a1
    2750:	76a0a623          	sw	a0,1900(ra)

00002754 <inst_499>:
    2754:	00300593          	li	a1,3
    2758:	66666537          	lui	a0,0x66666
    275c:	66550513          	addi	a0,a0,1637 # 66666665 <_end+0x66661b61>
    2760:	952e                	add	a0,a0,a1
    2762:	76a0a823          	sw	a0,1904(ra)

00002766 <inst_500>:
    2766:	555555b7          	lui	a1,0x55555
    276a:	55558593          	addi	a1,a1,1365 # 55555555 <_end+0x55550a51>
    276e:	66666537          	lui	a0,0x66666
    2772:	66550513          	addi	a0,a0,1637 # 66666665 <_end+0x66661b61>
    2776:	952e                	add	a0,a0,a1
    2778:	76a0aa23          	sw	a0,1908(ra)

0000277c <inst_501>:
    277c:	aaaab5b7          	lui	a1,0xaaaab
    2780:	aaa58593          	addi	a1,a1,-1366 # aaaaaaaa <_end+0xaaaa5fa6>
    2784:	66666537          	lui	a0,0x66666
    2788:	66550513          	addi	a0,a0,1637 # 66666665 <_end+0x66661b61>
    278c:	952e                	add	a0,a0,a1
    278e:	76a0ac23          	sw	a0,1912(ra)

00002792 <inst_502>:
    2792:	00500593          	li	a1,5
    2796:	66666537          	lui	a0,0x66666
    279a:	66550513          	addi	a0,a0,1637 # 66666665 <_end+0x66661b61>
    279e:	952e                	add	a0,a0,a1
    27a0:	76a0ae23          	sw	a0,1916(ra)

000027a4 <inst_503>:
    27a4:	333335b7          	lui	a1,0x33333
    27a8:	33358593          	addi	a1,a1,819 # 33333333 <_end+0x3332e82f>
    27ac:	66666537          	lui	a0,0x66666
    27b0:	66550513          	addi	a0,a0,1637 # 66666665 <_end+0x66661b61>
    27b4:	952e                	add	a0,a0,a1
    27b6:	78a0a023          	sw	a0,1920(ra)

000027ba <inst_504>:
    27ba:	666665b7          	lui	a1,0x66666
    27be:	66658593          	addi	a1,a1,1638 # 66666666 <_end+0x66661b62>
    27c2:	66666537          	lui	a0,0x66666
    27c6:	66550513          	addi	a0,a0,1637 # 66666665 <_end+0x66661b61>
    27ca:	952e                	add	a0,a0,a1
    27cc:	78a0a223          	sw	a0,1924(ra)

000027d0 <inst_505>:
    27d0:	ffff55b7          	lui	a1,0xffff5
    27d4:	afc58593          	addi	a1,a1,-1284 # ffff4afc <_end+0xfffefff8>
    27d8:	66666537          	lui	a0,0x66666
    27dc:	66550513          	addi	a0,a0,1637 # 66666665 <_end+0x66661b61>
    27e0:	952e                	add	a0,a0,a1
    27e2:	78a0a423          	sw	a0,1928(ra)

000027e6 <inst_506>:
    27e6:	0000b5b7          	lui	a1,0xb
    27ea:	50458593          	addi	a1,a1,1284 # b504 <_end+0x6a00>
    27ee:	66666537          	lui	a0,0x66666
    27f2:	66550513          	addi	a0,a0,1637 # 66666665 <_end+0x66661b61>
    27f6:	952e                	add	a0,a0,a1
    27f8:	78a0a623          	sw	a0,1932(ra)

000027fc <inst_507>:
    27fc:	00200593          	li	a1,2
    2800:	66666537          	lui	a0,0x66666
    2804:	66550513          	addi	a0,a0,1637 # 66666665 <_end+0x66661b61>
    2808:	952e                	add	a0,a0,a1
    280a:	78a0a823          	sw	a0,1936(ra)

0000280e <inst_508>:
    280e:	555555b7          	lui	a1,0x55555
    2812:	55458593          	addi	a1,a1,1364 # 55555554 <_end+0x55550a50>
    2816:	66666537          	lui	a0,0x66666
    281a:	66550513          	addi	a0,a0,1637 # 66666665 <_end+0x66661b61>
    281e:	952e                	add	a0,a0,a1
    2820:	78a0aa23          	sw	a0,1940(ra)

00002824 <inst_509>:
    2824:	00000593          	li	a1,0
    2828:	66666537          	lui	a0,0x66666
    282c:	66550513          	addi	a0,a0,1637 # 66666665 <_end+0x66661b61>
    2830:	952e                	add	a0,a0,a1
    2832:	78a0ac23          	sw	a0,1944(ra)

00002836 <inst_510>:
    2836:	00400593          	li	a1,4
    283a:	66666537          	lui	a0,0x66666
    283e:	66550513          	addi	a0,a0,1637 # 66666665 <_end+0x66661b61>
    2842:	952e                	add	a0,a0,a1
    2844:	78a0ae23          	sw	a0,1948(ra)

00002848 <inst_511>:
    2848:	333335b7          	lui	a1,0x33333
    284c:	33258593          	addi	a1,a1,818 # 33333332 <_end+0x3332e82e>
    2850:	66666537          	lui	a0,0x66666
    2854:	66550513          	addi	a0,a0,1637 # 66666665 <_end+0x66661b61>
    2858:	952e                	add	a0,a0,a1
    285a:	7aa0a023          	sw	a0,1952(ra)

0000285e <inst_512>:
    285e:	666665b7          	lui	a1,0x66666
    2862:	66558593          	addi	a1,a1,1637 # 66666665 <_end+0x66661b61>
    2866:	66666537          	lui	a0,0x66666
    286a:	66550513          	addi	a0,a0,1637 # 66666665 <_end+0x66661b61>
    286e:	952e                	add	a0,a0,a1
    2870:	7aa0a223          	sw	a0,1956(ra)

00002874 <inst_513>:
    2874:	0000b5b7          	lui	a1,0xb
    2878:	50358593          	addi	a1,a1,1283 # b503 <_end+0x69ff>
    287c:	66666537          	lui	a0,0x66666
    2880:	66550513          	addi	a0,a0,1637 # 66666665 <_end+0x66661b61>
    2884:	952e                	add	a0,a0,a1
    2886:	7aa0a423          	sw	a0,1960(ra)

0000288a <inst_514>:
    288a:	555555b7          	lui	a1,0x55555
    288e:	55658593          	addi	a1,a1,1366 # 55555556 <_end+0x55550a52>
    2892:	66666537          	lui	a0,0x66666
    2896:	66550513          	addi	a0,a0,1637 # 66666665 <_end+0x66661b61>
    289a:	952e                	add	a0,a0,a1
    289c:	7aa0a623          	sw	a0,1964(ra)

000028a0 <inst_515>:
    28a0:	aaaab5b7          	lui	a1,0xaaaab
    28a4:	aab58593          	addi	a1,a1,-1365 # aaaaaaab <_end+0xaaaa5fa7>
    28a8:	66666537          	lui	a0,0x66666
    28ac:	66550513          	addi	a0,a0,1637 # 66666665 <_end+0x66661b61>
    28b0:	952e                	add	a0,a0,a1
    28b2:	7aa0a823          	sw	a0,1968(ra)

000028b6 <inst_516>:
    28b6:	00600593          	li	a1,6
    28ba:	66666537          	lui	a0,0x66666
    28be:	66550513          	addi	a0,a0,1637 # 66666665 <_end+0x66661b61>
    28c2:	952e                	add	a0,a0,a1
    28c4:	7aa0aa23          	sw	a0,1972(ra)

000028c8 <inst_517>:
    28c8:	333335b7          	lui	a1,0x33333
    28cc:	33458593          	addi	a1,a1,820 # 33333334 <_end+0x3332e830>
    28d0:	66666537          	lui	a0,0x66666
    28d4:	66550513          	addi	a0,a0,1637 # 66666665 <_end+0x66661b61>
    28d8:	952e                	add	a0,a0,a1
    28da:	7aa0ac23          	sw	a0,1976(ra)

000028de <inst_518>:
    28de:	666665b7          	lui	a1,0x66666
    28e2:	66758593          	addi	a1,a1,1639 # 66666667 <_end+0x66661b63>
    28e6:	66666537          	lui	a0,0x66666
    28ea:	66550513          	addi	a0,a0,1637 # 66666665 <_end+0x66661b61>
    28ee:	952e                	add	a0,a0,a1
    28f0:	7aa0ae23          	sw	a0,1980(ra)

000028f4 <inst_519>:
    28f4:	ffff55b7          	lui	a1,0xffff5
    28f8:	afd58593          	addi	a1,a1,-1283 # ffff4afd <_end+0xfffefff9>
    28fc:	66666537          	lui	a0,0x66666
    2900:	66550513          	addi	a0,a0,1637 # 66666665 <_end+0x66661b61>
    2904:	952e                	add	a0,a0,a1
    2906:	7ca0a023          	sw	a0,1984(ra)

0000290a <inst_520>:
    290a:	0000b5b7          	lui	a1,0xb
    290e:	50558593          	addi	a1,a1,1285 # b505 <_end+0x6a01>
    2912:	66666537          	lui	a0,0x66666
    2916:	66550513          	addi	a0,a0,1637 # 66666665 <_end+0x66661b61>
    291a:	952e                	add	a0,a0,a1
    291c:	7ca0a223          	sw	a0,1988(ra)

00002920 <inst_521>:
    2920:	00300593          	li	a1,3
    2924:	0000b537          	lui	a0,0xb
    2928:	50350513          	addi	a0,a0,1283 # b503 <_end+0x69ff>
    292c:	952e                	add	a0,a0,a1
    292e:	7ca0a423          	sw	a0,1992(ra)

00002932 <inst_522>:
    2932:	555555b7          	lui	a1,0x55555
    2936:	55558593          	addi	a1,a1,1365 # 55555555 <_end+0x55550a51>
    293a:	0000b537          	lui	a0,0xb
    293e:	50350513          	addi	a0,a0,1283 # b503 <_end+0x69ff>
    2942:	952e                	add	a0,a0,a1
    2944:	7ca0a623          	sw	a0,1996(ra)

00002948 <inst_523>:
    2948:	aaaab5b7          	lui	a1,0xaaaab
    294c:	aaa58593          	addi	a1,a1,-1366 # aaaaaaaa <_end+0xaaaa5fa6>
    2950:	0000b537          	lui	a0,0xb
    2954:	50350513          	addi	a0,a0,1283 # b503 <_end+0x69ff>
    2958:	952e                	add	a0,a0,a1
    295a:	7ca0a823          	sw	a0,2000(ra)

0000295e <inst_524>:
    295e:	00500593          	li	a1,5
    2962:	0000b537          	lui	a0,0xb
    2966:	50350513          	addi	a0,a0,1283 # b503 <_end+0x69ff>
    296a:	952e                	add	a0,a0,a1
    296c:	7ca0aa23          	sw	a0,2004(ra)

00002970 <inst_525>:
    2970:	333335b7          	lui	a1,0x33333
    2974:	33358593          	addi	a1,a1,819 # 33333333 <_end+0x3332e82f>
    2978:	0000b537          	lui	a0,0xb
    297c:	50350513          	addi	a0,a0,1283 # b503 <_end+0x69ff>
    2980:	952e                	add	a0,a0,a1
    2982:	7ca0ac23          	sw	a0,2008(ra)

00002986 <inst_526>:
    2986:	666665b7          	lui	a1,0x66666
    298a:	66658593          	addi	a1,a1,1638 # 66666666 <_end+0x66661b62>
    298e:	0000b537          	lui	a0,0xb
    2992:	50350513          	addi	a0,a0,1283 # b503 <_end+0x69ff>
    2996:	952e                	add	a0,a0,a1
    2998:	7ca0ae23          	sw	a0,2012(ra)

0000299c <inst_527>:
    299c:	ffff55b7          	lui	a1,0xffff5
    29a0:	afc58593          	addi	a1,a1,-1284 # ffff4afc <_end+0xfffefff8>
    29a4:	0000b537          	lui	a0,0xb
    29a8:	50350513          	addi	a0,a0,1283 # b503 <_end+0x69ff>
    29ac:	952e                	add	a0,a0,a1
    29ae:	7ea0a023          	sw	a0,2016(ra)

000029b2 <inst_528>:
    29b2:	0000b5b7          	lui	a1,0xb
    29b6:	50458593          	addi	a1,a1,1284 # b504 <_end+0x6a00>
    29ba:	0000b537          	lui	a0,0xb
    29be:	50350513          	addi	a0,a0,1283 # b503 <_end+0x69ff>
    29c2:	952e                	add	a0,a0,a1
    29c4:	7ea0a223          	sw	a0,2020(ra)

000029c8 <inst_529>:
    29c8:	00200593          	li	a1,2
    29cc:	0000b537          	lui	a0,0xb
    29d0:	50350513          	addi	a0,a0,1283 # b503 <_end+0x69ff>
    29d4:	952e                	add	a0,a0,a1
    29d6:	7ea0a423          	sw	a0,2024(ra)

000029da <inst_530>:
    29da:	555555b7          	lui	a1,0x55555
    29de:	55458593          	addi	a1,a1,1364 # 55555554 <_end+0x55550a50>
    29e2:	0000b537          	lui	a0,0xb
    29e6:	50350513          	addi	a0,a0,1283 # b503 <_end+0x69ff>
    29ea:	952e                	add	a0,a0,a1
    29ec:	7ea0a623          	sw	a0,2028(ra)

000029f0 <inst_531>:
    29f0:	00000593          	li	a1,0
    29f4:	0000b537          	lui	a0,0xb
    29f8:	50350513          	addi	a0,a0,1283 # b503 <_end+0x69ff>
    29fc:	952e                	add	a0,a0,a1
    29fe:	7ea0a823          	sw	a0,2032(ra)

00002a02 <inst_532>:
    2a02:	00400593          	li	a1,4
    2a06:	0000b537          	lui	a0,0xb
    2a0a:	50350513          	addi	a0,a0,1283 # b503 <_end+0x69ff>
    2a0e:	952e                	add	a0,a0,a1
    2a10:	7ea0aa23          	sw	a0,2036(ra)

00002a14 <inst_533>:
    2a14:	333335b7          	lui	a1,0x33333
    2a18:	33258593          	addi	a1,a1,818 # 33333332 <_end+0x3332e82e>
    2a1c:	0000b537          	lui	a0,0xb
    2a20:	50350513          	addi	a0,a0,1283 # b503 <_end+0x69ff>
    2a24:	952e                	add	a0,a0,a1
    2a26:	7ea0ac23          	sw	a0,2040(ra)

00002a2a <inst_534>:
    2a2a:	666665b7          	lui	a1,0x66666
    2a2e:	66558593          	addi	a1,a1,1637 # 66666665 <_end+0x66661b61>
    2a32:	0000b537          	lui	a0,0xb
    2a36:	50350513          	addi	a0,a0,1283 # b503 <_end+0x69ff>
    2a3a:	952e                	add	a0,a0,a1
    2a3c:	7ea0ae23          	sw	a0,2044(ra)
    2a40:	00002097          	auipc	ra,0x2
    2a44:	e2c08093          	addi	ra,ra,-468 # 486c <signature_x1_1>

00002a48 <inst_535>:
    2a48:	0000b5b7          	lui	a1,0xb
    2a4c:	50358593          	addi	a1,a1,1283 # b503 <_end+0x69ff>
    2a50:	0000b537          	lui	a0,0xb
    2a54:	50350513          	addi	a0,a0,1283 # b503 <_end+0x69ff>
    2a58:	952e                	add	a0,a0,a1
    2a5a:	00a0a023          	sw	a0,0(ra)

00002a5e <inst_536>:
    2a5e:	555555b7          	lui	a1,0x55555
    2a62:	55658593          	addi	a1,a1,1366 # 55555556 <_end+0x55550a52>
    2a66:	0000b537          	lui	a0,0xb
    2a6a:	50350513          	addi	a0,a0,1283 # b503 <_end+0x69ff>
    2a6e:	952e                	add	a0,a0,a1
    2a70:	00a0a223          	sw	a0,4(ra)

00002a74 <inst_537>:
    2a74:	aaaab5b7          	lui	a1,0xaaaab
    2a78:	aab58593          	addi	a1,a1,-1365 # aaaaaaab <_end+0xaaaa5fa7>
    2a7c:	0000b537          	lui	a0,0xb
    2a80:	50350513          	addi	a0,a0,1283 # b503 <_end+0x69ff>
    2a84:	952e                	add	a0,a0,a1
    2a86:	00a0a423          	sw	a0,8(ra)

00002a8a <inst_538>:
    2a8a:	00600593          	li	a1,6
    2a8e:	0000b537          	lui	a0,0xb
    2a92:	50350513          	addi	a0,a0,1283 # b503 <_end+0x69ff>
    2a96:	952e                	add	a0,a0,a1
    2a98:	00a0a623          	sw	a0,12(ra)

00002a9c <inst_539>:
    2a9c:	333335b7          	lui	a1,0x33333
    2aa0:	33458593          	addi	a1,a1,820 # 33333334 <_end+0x3332e830>
    2aa4:	0000b537          	lui	a0,0xb
    2aa8:	50350513          	addi	a0,a0,1283 # b503 <_end+0x69ff>
    2aac:	952e                	add	a0,a0,a1
    2aae:	00a0a823          	sw	a0,16(ra)

00002ab2 <inst_540>:
    2ab2:	666665b7          	lui	a1,0x66666
    2ab6:	66758593          	addi	a1,a1,1639 # 66666667 <_end+0x66661b63>
    2aba:	0000b537          	lui	a0,0xb
    2abe:	50350513          	addi	a0,a0,1283 # b503 <_end+0x69ff>
    2ac2:	952e                	add	a0,a0,a1
    2ac4:	00a0aa23          	sw	a0,20(ra)

00002ac8 <inst_541>:
    2ac8:	ffff55b7          	lui	a1,0xffff5
    2acc:	afd58593          	addi	a1,a1,-1283 # ffff4afd <_end+0xfffefff9>
    2ad0:	0000b537          	lui	a0,0xb
    2ad4:	50350513          	addi	a0,a0,1283 # b503 <_end+0x69ff>
    2ad8:	952e                	add	a0,a0,a1
    2ada:	00a0ac23          	sw	a0,24(ra)

00002ade <inst_542>:
    2ade:	0000b5b7          	lui	a1,0xb
    2ae2:	50558593          	addi	a1,a1,1285 # b505 <_end+0x6a01>
    2ae6:	0000b537          	lui	a0,0xb
    2aea:	50350513          	addi	a0,a0,1283 # b503 <_end+0x69ff>
    2aee:	952e                	add	a0,a0,a1
    2af0:	00a0ae23          	sw	a0,28(ra)

00002af4 <inst_543>:
    2af4:	00300593          	li	a1,3
    2af8:	55555537          	lui	a0,0x55555
    2afc:	55650513          	addi	a0,a0,1366 # 55555556 <_end+0x55550a52>
    2b00:	952e                	add	a0,a0,a1
    2b02:	02a0a023          	sw	a0,32(ra)

00002b06 <inst_544>:
    2b06:	555555b7          	lui	a1,0x55555
    2b0a:	55558593          	addi	a1,a1,1365 # 55555555 <_end+0x55550a51>
    2b0e:	55555537          	lui	a0,0x55555
    2b12:	55650513          	addi	a0,a0,1366 # 55555556 <_end+0x55550a52>
    2b16:	952e                	add	a0,a0,a1
    2b18:	02a0a223          	sw	a0,36(ra)

00002b1c <inst_545>:
    2b1c:	aaaab5b7          	lui	a1,0xaaaab
    2b20:	aaa58593          	addi	a1,a1,-1366 # aaaaaaaa <_end+0xaaaa5fa6>
    2b24:	55555537          	lui	a0,0x55555
    2b28:	55650513          	addi	a0,a0,1366 # 55555556 <_end+0x55550a52>
    2b2c:	952e                	add	a0,a0,a1
    2b2e:	02a0a423          	sw	a0,40(ra)

00002b32 <inst_546>:
    2b32:	00500593          	li	a1,5
    2b36:	55555537          	lui	a0,0x55555
    2b3a:	55650513          	addi	a0,a0,1366 # 55555556 <_end+0x55550a52>
    2b3e:	952e                	add	a0,a0,a1
    2b40:	02a0a623          	sw	a0,44(ra)

00002b44 <inst_547>:
    2b44:	333335b7          	lui	a1,0x33333
    2b48:	33358593          	addi	a1,a1,819 # 33333333 <_end+0x3332e82f>
    2b4c:	55555537          	lui	a0,0x55555
    2b50:	55650513          	addi	a0,a0,1366 # 55555556 <_end+0x55550a52>
    2b54:	952e                	add	a0,a0,a1
    2b56:	02a0a823          	sw	a0,48(ra)

00002b5a <inst_548>:
    2b5a:	666665b7          	lui	a1,0x66666
    2b5e:	66658593          	addi	a1,a1,1638 # 66666666 <_end+0x66661b62>
    2b62:	55555537          	lui	a0,0x55555
    2b66:	55650513          	addi	a0,a0,1366 # 55555556 <_end+0x55550a52>
    2b6a:	952e                	add	a0,a0,a1
    2b6c:	02a0aa23          	sw	a0,52(ra)

00002b70 <inst_549>:
    2b70:	ffff55b7          	lui	a1,0xffff5
    2b74:	afc58593          	addi	a1,a1,-1284 # ffff4afc <_end+0xfffefff8>
    2b78:	55555537          	lui	a0,0x55555
    2b7c:	55650513          	addi	a0,a0,1366 # 55555556 <_end+0x55550a52>
    2b80:	952e                	add	a0,a0,a1
    2b82:	02a0ac23          	sw	a0,56(ra)

00002b86 <inst_550>:
    2b86:	0000b5b7          	lui	a1,0xb
    2b8a:	50458593          	addi	a1,a1,1284 # b504 <_end+0x6a00>
    2b8e:	55555537          	lui	a0,0x55555
    2b92:	55650513          	addi	a0,a0,1366 # 55555556 <_end+0x55550a52>
    2b96:	952e                	add	a0,a0,a1
    2b98:	02a0ae23          	sw	a0,60(ra)

00002b9c <inst_551>:
    2b9c:	00200593          	li	a1,2
    2ba0:	55555537          	lui	a0,0x55555
    2ba4:	55650513          	addi	a0,a0,1366 # 55555556 <_end+0x55550a52>
    2ba8:	952e                	add	a0,a0,a1
    2baa:	04a0a023          	sw	a0,64(ra)

00002bae <inst_552>:
    2bae:	555555b7          	lui	a1,0x55555
    2bb2:	55458593          	addi	a1,a1,1364 # 55555554 <_end+0x55550a50>
    2bb6:	55555537          	lui	a0,0x55555
    2bba:	55650513          	addi	a0,a0,1366 # 55555556 <_end+0x55550a52>
    2bbe:	952e                	add	a0,a0,a1
    2bc0:	04a0a223          	sw	a0,68(ra)

00002bc4 <inst_553>:
    2bc4:	00000593          	li	a1,0
    2bc8:	55555537          	lui	a0,0x55555
    2bcc:	55650513          	addi	a0,a0,1366 # 55555556 <_end+0x55550a52>
    2bd0:	952e                	add	a0,a0,a1
    2bd2:	04a0a423          	sw	a0,72(ra)

00002bd6 <inst_554>:
    2bd6:	00400593          	li	a1,4
    2bda:	55555537          	lui	a0,0x55555
    2bde:	55650513          	addi	a0,a0,1366 # 55555556 <_end+0x55550a52>
    2be2:	952e                	add	a0,a0,a1
    2be4:	04a0a623          	sw	a0,76(ra)

00002be8 <inst_555>:
    2be8:	333335b7          	lui	a1,0x33333
    2bec:	33258593          	addi	a1,a1,818 # 33333332 <_end+0x3332e82e>
    2bf0:	55555537          	lui	a0,0x55555
    2bf4:	55650513          	addi	a0,a0,1366 # 55555556 <_end+0x55550a52>
    2bf8:	952e                	add	a0,a0,a1
    2bfa:	04a0a823          	sw	a0,80(ra)

00002bfe <inst_556>:
    2bfe:	666665b7          	lui	a1,0x66666
    2c02:	66558593          	addi	a1,a1,1637 # 66666665 <_end+0x66661b61>
    2c06:	55555537          	lui	a0,0x55555
    2c0a:	55650513          	addi	a0,a0,1366 # 55555556 <_end+0x55550a52>
    2c0e:	952e                	add	a0,a0,a1
    2c10:	04a0aa23          	sw	a0,84(ra)

00002c14 <inst_557>:
    2c14:	0000b5b7          	lui	a1,0xb
    2c18:	50358593          	addi	a1,a1,1283 # b503 <_end+0x69ff>
    2c1c:	55555537          	lui	a0,0x55555
    2c20:	55650513          	addi	a0,a0,1366 # 55555556 <_end+0x55550a52>
    2c24:	952e                	add	a0,a0,a1
    2c26:	04a0ac23          	sw	a0,88(ra)

00002c2a <inst_558>:
    2c2a:	555555b7          	lui	a1,0x55555
    2c2e:	55658593          	addi	a1,a1,1366 # 55555556 <_end+0x55550a52>
    2c32:	55555537          	lui	a0,0x55555
    2c36:	55650513          	addi	a0,a0,1366 # 55555556 <_end+0x55550a52>
    2c3a:	952e                	add	a0,a0,a1
    2c3c:	04a0ae23          	sw	a0,92(ra)

00002c40 <inst_559>:
    2c40:	aaaab5b7          	lui	a1,0xaaaab
    2c44:	aab58593          	addi	a1,a1,-1365 # aaaaaaab <_end+0xaaaa5fa7>
    2c48:	55555537          	lui	a0,0x55555
    2c4c:	55650513          	addi	a0,a0,1366 # 55555556 <_end+0x55550a52>
    2c50:	952e                	add	a0,a0,a1
    2c52:	06a0a023          	sw	a0,96(ra)

00002c56 <inst_560>:
    2c56:	00600593          	li	a1,6
    2c5a:	55555537          	lui	a0,0x55555
    2c5e:	55650513          	addi	a0,a0,1366 # 55555556 <_end+0x55550a52>
    2c62:	952e                	add	a0,a0,a1
    2c64:	06a0a223          	sw	a0,100(ra)

00002c68 <inst_561>:
    2c68:	333335b7          	lui	a1,0x33333
    2c6c:	33458593          	addi	a1,a1,820 # 33333334 <_end+0x3332e830>
    2c70:	55555537          	lui	a0,0x55555
    2c74:	55650513          	addi	a0,a0,1366 # 55555556 <_end+0x55550a52>
    2c78:	952e                	add	a0,a0,a1
    2c7a:	06a0a423          	sw	a0,104(ra)

00002c7e <inst_562>:
    2c7e:	666665b7          	lui	a1,0x66666
    2c82:	66758593          	addi	a1,a1,1639 # 66666667 <_end+0x66661b63>
    2c86:	55555537          	lui	a0,0x55555
    2c8a:	55650513          	addi	a0,a0,1366 # 55555556 <_end+0x55550a52>
    2c8e:	952e                	add	a0,a0,a1
    2c90:	06a0a623          	sw	a0,108(ra)

00002c94 <inst_563>:
    2c94:	ffff55b7          	lui	a1,0xffff5
    2c98:	afd58593          	addi	a1,a1,-1283 # ffff4afd <_end+0xfffefff9>
    2c9c:	55555537          	lui	a0,0x55555
    2ca0:	55650513          	addi	a0,a0,1366 # 55555556 <_end+0x55550a52>
    2ca4:	952e                	add	a0,a0,a1
    2ca6:	06a0a823          	sw	a0,112(ra)

00002caa <inst_564>:
    2caa:	0000b5b7          	lui	a1,0xb
    2cae:	50558593          	addi	a1,a1,1285 # b505 <_end+0x6a01>
    2cb2:	55555537          	lui	a0,0x55555
    2cb6:	55650513          	addi	a0,a0,1366 # 55555556 <_end+0x55550a52>
    2cba:	952e                	add	a0,a0,a1
    2cbc:	06a0aa23          	sw	a0,116(ra)

00002cc0 <inst_565>:
    2cc0:	00300593          	li	a1,3
    2cc4:	aaaab537          	lui	a0,0xaaaab
    2cc8:	aab50513          	addi	a0,a0,-1365 # aaaaaaab <_end+0xaaaa5fa7>
    2ccc:	952e                	add	a0,a0,a1
    2cce:	06a0ac23          	sw	a0,120(ra)

00002cd2 <inst_566>:
    2cd2:	555555b7          	lui	a1,0x55555
    2cd6:	55558593          	addi	a1,a1,1365 # 55555555 <_end+0x55550a51>
    2cda:	aaaab537          	lui	a0,0xaaaab
    2cde:	aab50513          	addi	a0,a0,-1365 # aaaaaaab <_end+0xaaaa5fa7>
    2ce2:	952e                	add	a0,a0,a1
    2ce4:	06a0ae23          	sw	a0,124(ra)

00002ce8 <inst_567>:
    2ce8:	aaaab5b7          	lui	a1,0xaaaab
    2cec:	aaa58593          	addi	a1,a1,-1366 # aaaaaaaa <_end+0xaaaa5fa6>
    2cf0:	aaaab537          	lui	a0,0xaaaab
    2cf4:	aab50513          	addi	a0,a0,-1365 # aaaaaaab <_end+0xaaaa5fa7>
    2cf8:	952e                	add	a0,a0,a1
    2cfa:	08a0a023          	sw	a0,128(ra)

00002cfe <inst_568>:
    2cfe:	00500593          	li	a1,5
    2d02:	aaaab537          	lui	a0,0xaaaab
    2d06:	aab50513          	addi	a0,a0,-1365 # aaaaaaab <_end+0xaaaa5fa7>
    2d0a:	952e                	add	a0,a0,a1
    2d0c:	08a0a223          	sw	a0,132(ra)

00002d10 <inst_569>:
    2d10:	333335b7          	lui	a1,0x33333
    2d14:	33358593          	addi	a1,a1,819 # 33333333 <_end+0x3332e82f>
    2d18:	aaaab537          	lui	a0,0xaaaab
    2d1c:	aab50513          	addi	a0,a0,-1365 # aaaaaaab <_end+0xaaaa5fa7>
    2d20:	952e                	add	a0,a0,a1
    2d22:	08a0a423          	sw	a0,136(ra)

00002d26 <inst_570>:
    2d26:	666665b7          	lui	a1,0x66666
    2d2a:	66658593          	addi	a1,a1,1638 # 66666666 <_end+0x66661b62>
    2d2e:	aaaab537          	lui	a0,0xaaaab
    2d32:	aab50513          	addi	a0,a0,-1365 # aaaaaaab <_end+0xaaaa5fa7>
    2d36:	952e                	add	a0,a0,a1
    2d38:	08a0a623          	sw	a0,140(ra)

00002d3c <inst_571>:
    2d3c:	ffff55b7          	lui	a1,0xffff5
    2d40:	afc58593          	addi	a1,a1,-1284 # ffff4afc <_end+0xfffefff8>
    2d44:	aaaab537          	lui	a0,0xaaaab
    2d48:	aab50513          	addi	a0,a0,-1365 # aaaaaaab <_end+0xaaaa5fa7>
    2d4c:	952e                	add	a0,a0,a1
    2d4e:	08a0a823          	sw	a0,144(ra)

00002d52 <inst_572>:
    2d52:	0000b5b7          	lui	a1,0xb
    2d56:	50458593          	addi	a1,a1,1284 # b504 <_end+0x6a00>
    2d5a:	aaaab537          	lui	a0,0xaaaab
    2d5e:	aab50513          	addi	a0,a0,-1365 # aaaaaaab <_end+0xaaaa5fa7>
    2d62:	952e                	add	a0,a0,a1
    2d64:	08a0aa23          	sw	a0,148(ra)

00002d68 <inst_573>:
    2d68:	00200593          	li	a1,2
    2d6c:	aaaab537          	lui	a0,0xaaaab
    2d70:	aab50513          	addi	a0,a0,-1365 # aaaaaaab <_end+0xaaaa5fa7>
    2d74:	952e                	add	a0,a0,a1
    2d76:	08a0ac23          	sw	a0,152(ra)

00002d7a <inst_574>:
    2d7a:	555555b7          	lui	a1,0x55555
    2d7e:	55458593          	addi	a1,a1,1364 # 55555554 <_end+0x55550a50>
    2d82:	aaaab537          	lui	a0,0xaaaab
    2d86:	aab50513          	addi	a0,a0,-1365 # aaaaaaab <_end+0xaaaa5fa7>
    2d8a:	952e                	add	a0,a0,a1
    2d8c:	08a0ae23          	sw	a0,156(ra)

00002d90 <inst_575>:
    2d90:	00000593          	li	a1,0
    2d94:	aaaab537          	lui	a0,0xaaaab
    2d98:	aab50513          	addi	a0,a0,-1365 # aaaaaaab <_end+0xaaaa5fa7>
    2d9c:	952e                	add	a0,a0,a1
    2d9e:	0aa0a023          	sw	a0,160(ra)

00002da2 <inst_576>:
    2da2:	00400593          	li	a1,4
    2da6:	aaaab537          	lui	a0,0xaaaab
    2daa:	aab50513          	addi	a0,a0,-1365 # aaaaaaab <_end+0xaaaa5fa7>
    2dae:	952e                	add	a0,a0,a1
    2db0:	0aa0a223          	sw	a0,164(ra)

00002db4 <inst_577>:
    2db4:	333335b7          	lui	a1,0x33333
    2db8:	33258593          	addi	a1,a1,818 # 33333332 <_end+0x3332e82e>
    2dbc:	aaaab537          	lui	a0,0xaaaab
    2dc0:	aab50513          	addi	a0,a0,-1365 # aaaaaaab <_end+0xaaaa5fa7>
    2dc4:	952e                	add	a0,a0,a1
    2dc6:	0aa0a423          	sw	a0,168(ra)

00002dca <inst_578>:
    2dca:	666665b7          	lui	a1,0x66666
    2dce:	66558593          	addi	a1,a1,1637 # 66666665 <_end+0x66661b61>
    2dd2:	aaaab537          	lui	a0,0xaaaab
    2dd6:	aab50513          	addi	a0,a0,-1365 # aaaaaaab <_end+0xaaaa5fa7>
    2dda:	952e                	add	a0,a0,a1
    2ddc:	0aa0a623          	sw	a0,172(ra)

00002de0 <inst_579>:
    2de0:	0000b5b7          	lui	a1,0xb
    2de4:	50358593          	addi	a1,a1,1283 # b503 <_end+0x69ff>
    2de8:	aaaab537          	lui	a0,0xaaaab
    2dec:	aab50513          	addi	a0,a0,-1365 # aaaaaaab <_end+0xaaaa5fa7>
    2df0:	952e                	add	a0,a0,a1
    2df2:	0aa0a823          	sw	a0,176(ra)

00002df6 <inst_580>:
    2df6:	555555b7          	lui	a1,0x55555
    2dfa:	55658593          	addi	a1,a1,1366 # 55555556 <_end+0x55550a52>
    2dfe:	aaaab537          	lui	a0,0xaaaab
    2e02:	aab50513          	addi	a0,a0,-1365 # aaaaaaab <_end+0xaaaa5fa7>
    2e06:	952e                	add	a0,a0,a1
    2e08:	0aa0aa23          	sw	a0,180(ra)

00002e0c <inst_581>:
    2e0c:	aaaab5b7          	lui	a1,0xaaaab
    2e10:	aab58593          	addi	a1,a1,-1365 # aaaaaaab <_end+0xaaaa5fa7>
    2e14:	aaaab537          	lui	a0,0xaaaab
    2e18:	aab50513          	addi	a0,a0,-1365 # aaaaaaab <_end+0xaaaa5fa7>
    2e1c:	952e                	add	a0,a0,a1
    2e1e:	0aa0ac23          	sw	a0,184(ra)

00002e22 <inst_582>:
    2e22:	00600593          	li	a1,6
    2e26:	aaaab537          	lui	a0,0xaaaab
    2e2a:	aab50513          	addi	a0,a0,-1365 # aaaaaaab <_end+0xaaaa5fa7>
    2e2e:	952e                	add	a0,a0,a1
    2e30:	0aa0ae23          	sw	a0,188(ra)

00002e34 <inst_583>:
    2e34:	333335b7          	lui	a1,0x33333
    2e38:	33458593          	addi	a1,a1,820 # 33333334 <_end+0x3332e830>
    2e3c:	aaaab537          	lui	a0,0xaaaab
    2e40:	aab50513          	addi	a0,a0,-1365 # aaaaaaab <_end+0xaaaa5fa7>
    2e44:	952e                	add	a0,a0,a1
    2e46:	0ca0a023          	sw	a0,192(ra)

00002e4a <inst_584>:
    2e4a:	666665b7          	lui	a1,0x66666
    2e4e:	66758593          	addi	a1,a1,1639 # 66666667 <_end+0x66661b63>
    2e52:	aaaab537          	lui	a0,0xaaaab
    2e56:	aab50513          	addi	a0,a0,-1365 # aaaaaaab <_end+0xaaaa5fa7>
    2e5a:	952e                	add	a0,a0,a1
    2e5c:	0ca0a223          	sw	a0,196(ra)

00002e60 <rvtest_code_end>:
    2e60:	00001297          	auipc	t0,0x1
    2e64:	1b028293          	addi	t0,t0,432 # 4010 <begin_signature>
    2e68:	00020337          	lui	t1,0x20
    2e6c:	0311                	addi	t1,t1,4
    2e6e:	00532023          	sw	t0,0(t1) # 20000 <_end+0x1b4fc>
    2e72:	00002297          	auipc	t0,0x2
    2e76:	ace28293          	addi	t0,t0,-1330 # 4940 <end_signature>
    2e7a:	00020337          	lui	t1,0x20
    2e7e:	0321                	addi	t1,t1,8
    2e80:	00532023          	sw	t0,0(t1) # 20000 <_end+0x1b4fc>
    2e84:	4285                	li	t0,1
    2e86:	00020337          	lui	t1,0x20
    2e8a:	00532023          	sw	t0,0(t1) # 20000 <_end+0x1b4fc>
    2e8e:	0ff0000f          	fence
    2e92:	4185                	li	gp,1
    2e94:	00000073          	ecall
	...

Disassembly of section .tohost:

00003000 <tohost>:
	...

00003100 <fromhost>:
	...
