
/home/luanle/ibex/riscv-compliance/work/rv32i_m/C/candi-01.elf:     file format elf32-littleriscv


Disassembly of section .text.trap:

00000000 <_trap_start>:
   0:	a829                	j	1a <_trap_exception>
   2:	a81d                	j	38 <_int_exc>
   4:	a815                	j	38 <_int_exc>
   6:	a80d                	j	38 <_int_exc>
   8:	a805                	j	38 <_int_exc>
   a:	a03d                	j	38 <_int_exc>
   c:	a035                	j	38 <_int_exc>
   e:	a02d                	j	38 <_int_exc>
  10:	a025                	j	38 <_int_exc>
  12:	a01d                	j	38 <_int_exc>
  14:	a015                	j	38 <_int_exc>
  16:	a00d                	j	38 <_int_exc>
  18:	a005                	j	38 <_int_exc>

0000001a <_trap_exception>:
  1a:	34202573          	csrr	a0,mcause
  1e:	45ad                	li	a1,11
  20:	00b50763          	beq	a0,a1,2e <_trap_exception+0x14>
  24:	00003597          	auipc	a1,0x3
  28:	fec58593          	addi	a1,a1,-20 # 3010 <begin_signature>
  2c:	c188                	sw	a0,0(a1)
  2e:	00000517          	auipc	a0,0x0
  32:	08450513          	addi	a0,a0,132 # b2 <write_tohost>
  36:	8502                	jr	a0

00000038 <_int_exc>:
  38:	00000517          	auipc	a0,0x0
  3c:	07a50513          	addi	a0,a0,122 # b2 <write_tohost>
  40:	8502                	jr	a0

Disassembly of section .text.init:

00000080 <_start>:
      80:	a835                	j	bc <reset_vector>
      82:	0001                	nop

00000084 <trap_vector>:
      84:	34202f73          	csrr	t5,mcause
      88:	4fa1                	li	t6,8
      8a:	03ff0463          	beq	t5,t6,b2 <write_tohost>
      8e:	4fa5                	li	t6,9
      90:	03ff0163          	beq	t5,t6,b2 <write_tohost>
      94:	4fad                	li	t6,11
      96:	01ff0e63          	beq	t5,t6,b2 <write_tohost>
      9a:	00000f13          	li	t5,0
      9e:	000f0363          	beqz	t5,a4 <trap_vector+0x20>
      a2:	8f02                	jr	t5
      a4:	34202f73          	csrr	t5,mcause
      a8:	000f5363          	bgez	t5,ae <handle_exception>
      ac:	a009                	j	ae <handle_exception>

000000ae <handle_exception>:
      ae:	5391e193          	ori	gp,gp,1337

000000b2 <write_tohost>:
      b2:	00002f17          	auipc	t5,0x2
      b6:	f43f2723          	sw	gp,-178(t5) # 2000 <tohost>
      ba:	bfe5                	j	b2 <write_tohost>

000000bc <reset_vector>:
      bc:	f1402573          	csrr	a0,mhartid
      c0:	e101                	bnez	a0,c0 <reset_vector+0x4>
      c2:	4181                	li	gp,0
      c4:	00000297          	auipc	t0,0x0
      c8:	fc028293          	addi	t0,t0,-64 # 84 <trap_vector>
      cc:	30529073          	csrw	mtvec,t0
      d0:	4505                	li	a0,1
      d2:	057e                	slli	a0,a0,0x1f
      d4:	00054763          	bltz	a0,e2 <reset_vector+0x26>
      d8:	0ff0000f          	fence
      dc:	4185                	li	gp,1
      de:	00000073          	ecall
      e2:	00000293          	li	t0,0
      e6:	00028d63          	beqz	t0,100 <reset_vector+0x44>
      ea:	10529073          	csrw	stvec,t0
      ee:	62ad                	lui	t0,0xb
      f0:	10928293          	addi	t0,t0,265 # b109 <_end+0x7a05>
      f4:	30229073          	csrw	medeleg,t0
      f8:	30202373          	csrr	t1,medeleg
      fc:	fa6299e3          	bne	t0,t1,ae <handle_exception>
     100:	30005073          	csrwi	mstatus,0
     104:	6509                	lui	a0,0x2
     106:	80050513          	addi	a0,a0,-2048 # 1800 <rvtest_code_end+0x330>
     10a:	30052073          	csrs	mstatus,a0
     10e:	00000297          	auipc	t0,0x0
     112:	01428293          	addi	t0,t0,20 # 122 <begin_testcode>
     116:	34129073          	csrw	mepc,t0
     11a:	f1402573          	csrr	a0,mhartid
     11e:	30200073          	mret

00000122 <begin_testcode>:
     122:	0001                	nop
     124:	00000013          	nop
     128:	00000013          	nop
     12c:	00000013          	nop
     130:	00000013          	nop
     134:	00000013          	nop
     138:	00000013          	nop
     13c:	00000013          	nop

00000140 <rvtest_init>:
     140:	feedc0b7          	lui	ra,0xfeedc
     144:	ead08093          	addi	ra,ra,-339 # feedbead <_end+0xfeed87a9>
     148:	ff76e137          	lui	sp,0xff76e
     14c:	f5610113          	addi	sp,sp,-170 # ff76df56 <_end+0xff76a852>
     150:	7fbb71b7          	lui	gp,0x7fbb7
     154:	fab18193          	addi	gp,gp,-85 # 7fbb6fab <_end+0x7fbb38a7>
     158:	bfddb237          	lui	tp,0xbfddb
     15c:	7d520213          	addi	tp,tp,2005 # bfddb7d5 <_end+0xbfdd80d1>
     160:	00000297          	auipc	t0,0x0
     164:	0d828293          	addi	t0,t0,216 # 238 <rvtest_code_begin>
     168:	00003317          	auipc	t1,0x3
     16c:	e9830313          	addi	t1,t1,-360 # 3000 <rvtest_data_begin>
     170:	b7fbb3b7          	lui	t2,0xb7fbb
     174:	6fa38393          	addi	t2,t2,1786 # b7fbb6fa <_end+0xb7fb7ff6>
     178:	5bfde437          	lui	s0,0x5bfde
     17c:	b7d40413          	addi	s0,s0,-1155 # 5bfddb7d <_end+0x5bfda479>
     180:	adfef4b7          	lui	s1,0xadfef
     184:	dbe48493          	addi	s1,s1,-578 # adfeedbe <_end+0xadfeb6ba>
     188:	56ff7537          	lui	a0,0x56ff7
     18c:	6df50513          	addi	a0,a0,1759 # 56ff76df <_end+0x56ff3fdb>
     190:	ab7fc5b7          	lui	a1,0xab7fc
     194:	b6f58593          	addi	a1,a1,-1169 # ab7fbb6f <_end+0xab7f846b>
     198:	d5bfe637          	lui	a2,0xd5bfe
     19c:	db760613          	addi	a2,a2,-585 # d5bfddb7 <_end+0xd5bfa6b3>
     1a0:	eadff6b7          	lui	a3,0xeadff
     1a4:	edb68693          	addi	a3,a3,-293 # eadfeedb <_end+0xeadfb7d7>
     1a8:	f56ff737          	lui	a4,0xf56ff
     1ac:	76d70713          	addi	a4,a4,1901 # f56ff76d <_end+0xf56fc069>
     1b0:	fab807b7          	lui	a5,0xfab80
     1b4:	bb678793          	addi	a5,a5,-1098 # fab7fbb6 <_end+0xfab7c4b2>
     1b8:	7d5c0837          	lui	a6,0x7d5c0
     1bc:	ddb80813          	addi	a6,a6,-549 # 7d5bfddb <_end+0x7d5bc6d7>
     1c0:	beae08b7          	lui	a7,0xbeae0
     1c4:	eed88893          	addi	a7,a7,-275 # beadfeed <_end+0xbeadc7e9>
     1c8:	df570937          	lui	s2,0xdf570
     1cc:	f7690913          	addi	s2,s2,-138 # df56ff76 <_end+0xdf56c872>
     1d0:	6fab89b7          	lui	s3,0x6fab8
     1d4:	fbb98993          	addi	s3,s3,-69 # 6fab7fbb <_end+0x6fab48b7>
     1d8:	b7d5ca37          	lui	s4,0xb7d5c
     1dc:	fdda0a13          	addi	s4,s4,-35 # b7d5bfdd <_end+0xb7d588d9>
     1e0:	dbeaeab7          	lui	s5,0xdbeae
     1e4:	feea8a93          	addi	s5,s5,-18 # dbeadfee <_end+0xdbeaa8ea>
     1e8:	6df57b37          	lui	s6,0x6df57
     1ec:	ff7b0b13          	addi	s6,s6,-9 # 6df56ff7 <_end+0x6df538f3>
     1f0:	b6fabbb7          	lui	s7,0xb6fab
     1f4:	7fbb8b93          	addi	s7,s7,2043 # b6fab7fb <_end+0xb6fa80f7>
     1f8:	db7d6c37          	lui	s8,0xdb7d6
     1fc:	bfdc0c13          	addi	s8,s8,-1027 # db7d5bfd <_end+0xdb7d24f9>
     200:	edbebcb7          	lui	s9,0xedbeb
     204:	dfec8c93          	addi	s9,s9,-514 # edbeadfe <_end+0xedbe76fa>
     208:	76df5d37          	lui	s10,0x76df5
     20c:	6ffd0d13          	addi	s10,s10,1791 # 76df56ff <_end+0x76df1ffb>
     210:	bb6fbdb7          	lui	s11,0xbb6fb
     214:	b7fd8d93          	addi	s11,s11,-1153 # bb6fab7f <_end+0xbb6f747b>
     218:	ddb7de37          	lui	t3,0xddb7d
     21c:	5bfe0e13          	addi	t3,t3,1471 # ddb7d5bf <_end+0xddb79ebb>
     220:	eedbfeb7          	lui	t4,0xeedbf
     224:	adfe8e93          	addi	t4,t4,-1313 # eedbeadf <_end+0xeedbb3db>
     228:	f76dff37          	lui	t5,0xf76df
     22c:	56ff0f13          	addi	t5,t5,1391 # f76df56f <_end+0xf76dbe6b>
     230:	fbb70fb7          	lui	t6,0xfbb70
     234:	ab7f8f93          	addi	t6,t6,-1353 # fbb6fab7 <_end+0xfbb6c3b3>

00000238 <rvtest_code_begin>:
     238:	00003097          	auipc	ra,0x3
     23c:	dd808093          	addi	ra,ra,-552 # 3010 <begin_signature>

00000240 <inst_0>:
     240:	ffa00713          	li	a4,-6
     244:	9b69                	andi	a4,a4,-6
     246:	00e0a023          	sw	a4,0(ra)

0000024a <inst_1>:
     24a:	ffff8537          	lui	a0,0xffff8
     24e:	fff50513          	addi	a0,a0,-1 # ffff7fff <_end+0xffff48fb>
     252:	8929                	andi	a0,a0,10
     254:	00a0a223          	sw	a0,4(ra)

00000258 <inst_2>:
     258:	000026b7          	lui	a3,0x2
     25c:	8a95                	andi	a3,a3,5
     25e:	00d0a423          	sw	a3,8(ra)

00000262 <inst_3>:
     262:	10000793          	li	a5,256
     266:	9bfd                	andi	a5,a5,-1
     268:	00f0a623          	sw	a5,12(ra)

0000026c <inst_4>:
     26c:	00800613          	li	a2,8
     270:	9a01                	andi	a2,a2,-32
     272:	00c0a823          	sw	a2,16(ra)

00000276 <inst_5>:
     276:	ffff55b7          	lui	a1,0xffff5
     27a:	afc58593          	addi	a1,a1,-1284 # ffff4afc <_end+0xffff13f8>
     27e:	8981                	andi	a1,a1,0
     280:	00b0aa23          	sw	a1,20(ra)

00000284 <inst_6>:
     284:	fdf00493          	li	s1,-33
     288:	88fd                	andi	s1,s1,31
     28a:	0090ac23          	sw	s1,24(ra)

0000028e <inst_7>:
     28e:	00002437          	lui	s0,0x2
     292:	8805                	andi	s0,s0,1
     294:	0080ae23          	sw	s0,28(ra)

00000298 <inst_8>:
     298:	80000537          	lui	a0,0x80000
     29c:	8905                	andi	a0,a0,1
     29e:	02a0a023          	sw	a0,32(ra)

000002a2 <inst_9>:
     2a2:	00000513          	li	a0,0
     2a6:	8911                	andi	a0,a0,4
     2a8:	02a0a223          	sw	a0,36(ra)

000002ac <inst_10>:
     2ac:	80000537          	lui	a0,0x80000
     2b0:	fff50513          	addi	a0,a0,-1 # 7fffffff <_end+0x7fffc8fb>
     2b4:	8901                	andi	a0,a0,0
     2b6:	02a0a423          	sw	a0,40(ra)

000002ba <inst_11>:
     2ba:	00100513          	li	a0,1
     2be:	890d                	andi	a0,a0,3
     2c0:	02a0a623          	sw	a0,44(ra)

000002c4 <inst_12>:
     2c4:	00500513          	li	a0,5
     2c8:	8909                	andi	a0,a0,2
     2ca:	02a0a823          	sw	a0,48(ra)

000002ce <inst_13>:
     2ce:	ffe00513          	li	a0,-2
     2d2:	8921                	andi	a0,a0,8
     2d4:	02a0aa23          	sw	a0,52(ra)

000002d8 <inst_14>:
     2d8:	fff00537          	lui	a0,0xfff00
     2dc:	fff50513          	addi	a0,a0,-1 # ffefffff <_end+0xffefc8fb>
     2e0:	8941                	andi	a0,a0,16
     2e2:	02a0ac23          	sw	a0,56(ra)

000002e6 <inst_15>:
     2e6:	00300513          	li	a0,3
     2ea:	9979                	andi	a0,a0,-2
     2ec:	02a0ae23          	sw	a0,60(ra)

000002f0 <inst_16>:
     2f0:	00100537          	lui	a0,0x100
     2f4:	9975                	andi	a0,a0,-3
     2f6:	04a0a023          	sw	a0,64(ra)

000002fa <inst_17>:
     2fa:	66666537          	lui	a0,0x66666
     2fe:	66750513          	addi	a0,a0,1639 # 66666667 <_end+0x66662f63>
     302:	996d                	andi	a0,a0,-5
     304:	04a0a223          	sw	a0,68(ra)

00000308 <inst_18>:
     308:	66666537          	lui	a0,0x66666
     30c:	66550513          	addi	a0,a0,1637 # 66666665 <_end+0x66662f61>
     310:	995d                	andi	a0,a0,-9
     312:	04a0a423          	sw	a0,72(ra)

00000316 <inst_19>:
     316:	00300513          	li	a0,3
     31a:	993d                	andi	a0,a0,-17
     31c:	04a0a623          	sw	a0,76(ra)

00000320 <inst_20>:
     320:	10000537          	lui	a0,0x10000
     324:	8955                	andi	a0,a0,21
     326:	04a0a823          	sw	a0,80(ra)

0000032a <inst_21>:
     32a:	00500513          	li	a0,5
     32e:	9929                	andi	a0,a0,-22
     330:	04a0aa23          	sw	a0,84(ra)

00000334 <inst_22>:
     334:	00200513          	li	a0,2
     338:	8915                	andi	a0,a0,5
     33a:	04a0ac23          	sw	a0,88(ra)

0000033e <inst_23>:
     33e:	00400513          	li	a0,4
     342:	8929                	andi	a0,a0,10
     344:	04a0ae23          	sw	a0,92(ra)

00000348 <inst_24>:
     348:	01000513          	li	a0,16
     34c:	8909                	andi	a0,a0,2
     34e:	06a0a023          	sw	a0,96(ra)

00000352 <inst_25>:
     352:	02000513          	li	a0,32
     356:	9941                	andi	a0,a0,-16
     358:	06a0a223          	sw	a0,100(ra)

0000035c <inst_26>:
     35c:	04000513          	li	a0,64
     360:	8901                	andi	a0,a0,0
     362:	06a0a423          	sw	a0,104(ra)

00000366 <inst_27>:
     366:	08000513          	li	a0,128
     36a:	897d                	andi	a0,a0,31
     36c:	06a0a623          	sw	a0,108(ra)

00000370 <inst_28>:
     370:	20000513          	li	a0,512
     374:	8911                	andi	a0,a0,4
     376:	06a0a823          	sw	a0,112(ra)

0000037a <inst_29>:
     37a:	40000513          	li	a0,1024
     37e:	8911                	andi	a0,a0,4
     380:	06a0aa23          	sw	a0,116(ra)

00000384 <inst_30>:
     384:	00001537          	lui	a0,0x1
     388:	80050513          	addi	a0,a0,-2048 # 800 <inst_125+0x6>
     38c:	9979                	andi	a0,a0,-2
     38e:	06a0ac23          	sw	a0,120(ra)

00000392 <inst_31>:
     392:	00001537          	lui	a0,0x1
     396:	8955                	andi	a0,a0,21
     398:	06a0ae23          	sw	a0,124(ra)

0000039c <inst_32>:
     39c:	00004537          	lui	a0,0x4
     3a0:	9901                	andi	a0,a0,-32
     3a2:	08a0a023          	sw	a0,128(ra)

000003a6 <inst_33>:
     3a6:	00008537          	lui	a0,0x8
     3aa:	890d                	andi	a0,a0,3
     3ac:	08a0a223          	sw	a0,132(ra)

000003b0 <inst_34>:
     3b0:	00010537          	lui	a0,0x10
     3b4:	8909                	andi	a0,a0,2
     3b6:	08a0a423          	sw	a0,136(ra)

000003ba <inst_35>:
     3ba:	00020537          	lui	a0,0x20
     3be:	8919                	andi	a0,a0,6
     3c0:	08a0a623          	sw	a0,140(ra)

000003c4 <inst_36>:
     3c4:	00040537          	lui	a0,0x40
     3c8:	9969                	andi	a0,a0,-6
     3ca:	08a0a823          	sw	a0,144(ra)

000003ce <inst_37>:
     3ce:	00080537          	lui	a0,0x80
     3d2:	997d                	andi	a0,a0,-1
     3d4:	08a0aa23          	sw	a0,148(ra)

000003d8 <inst_38>:
     3d8:	00200537          	lui	a0,0x200
     3dc:	8901                	andi	a0,a0,0
     3de:	08a0ac23          	sw	a0,152(ra)

000003e2 <inst_39>:
     3e2:	00400537          	lui	a0,0x400
     3e6:	9979                	andi	a0,a0,-2
     3e8:	08a0ae23          	sw	a0,156(ra)

000003ec <inst_40>:
     3ec:	00800537          	lui	a0,0x800
     3f0:	892d                	andi	a0,a0,11
     3f2:	0aa0a023          	sw	a0,160(ra)

000003f6 <inst_41>:
     3f6:	01000537          	lui	a0,0x1000
     3fa:	8901                	andi	a0,a0,0
     3fc:	0aa0a223          	sw	a0,164(ra)

00000400 <inst_42>:
     400:	02000537          	lui	a0,0x2000
     404:	8919                	andi	a0,a0,6
     406:	0aa0a423          	sw	a0,168(ra)

0000040a <inst_43>:
     40a:	04000537          	lui	a0,0x4000
     40e:	8911                	andi	a0,a0,4
     410:	0aa0a623          	sw	a0,172(ra)

00000414 <inst_44>:
     414:	08000537          	lui	a0,0x8000
     418:	8901                	andi	a0,a0,0
     41a:	0aa0a823          	sw	a0,176(ra)

0000041e <inst_45>:
     41e:	20000537          	lui	a0,0x20000
     422:	9975                	andi	a0,a0,-3
     424:	0aa0aa23          	sw	a0,180(ra)

00000428 <inst_46>:
     428:	40000537          	lui	a0,0x40000
     42c:	8911                	andi	a0,a0,4
     42e:	0aa0ac23          	sw	a0,184(ra)

00000432 <inst_47>:
     432:	ffd00513          	li	a0,-3
     436:	8929                	andi	a0,a0,10
     438:	0aa0ae23          	sw	a0,188(ra)

0000043c <inst_48>:
     43c:	ffb00513          	li	a0,-5
     440:	997d                	andi	a0,a0,-1
     442:	0ca0a023          	sw	a0,192(ra)

00000446 <inst_49>:
     446:	ff700513          	li	a0,-9
     44a:	8941                	andi	a0,a0,16
     44c:	0ca0a223          	sw	a0,196(ra)

00000450 <inst_50>:
     450:	fef00513          	li	a0,-17
     454:	9979                	andi	a0,a0,-2
     456:	0ca0a423          	sw	a0,200(ra)

0000045a <inst_51>:
     45a:	fbf00513          	li	a0,-65
     45e:	891d                	andi	a0,a0,7
     460:	0ca0a623          	sw	a0,204(ra)

00000464 <inst_52>:
     464:	f7f00513          	li	a0,-129
     468:	8911                	andi	a0,a0,4
     46a:	0ca0a823          	sw	a0,208(ra)

0000046e <inst_53>:
     46e:	eff00513          	li	a0,-257
     472:	8919                	andi	a0,a0,6
     474:	0ca0aa23          	sw	a0,212(ra)

00000478 <inst_54>:
     478:	dff00513          	li	a0,-513
     47c:	8941                	andi	a0,a0,16
     47e:	0ca0ac23          	sw	a0,216(ra)

00000482 <inst_55>:
     482:	bff00513          	li	a0,-1025
     486:	8905                	andi	a0,a0,1
     488:	0ca0ae23          	sw	a0,220(ra)

0000048c <inst_56>:
     48c:	fffff537          	lui	a0,0xfffff
     490:	7ff50513          	addi	a0,a0,2047 # fffff7ff <_end+0xffffc0fb>
     494:	8909                	andi	a0,a0,2
     496:	0ea0a023          	sw	a0,224(ra)

0000049a <inst_57>:
     49a:	fffff537          	lui	a0,0xfffff
     49e:	fff50513          	addi	a0,a0,-1 # ffffefff <_end+0xffffb8fb>
     4a2:	8925                	andi	a0,a0,9
     4a4:	0ea0a223          	sw	a0,228(ra)

000004a8 <inst_58>:
     4a8:	ffffe537          	lui	a0,0xffffe
     4ac:	fff50513          	addi	a0,a0,-1 # ffffdfff <_end+0xffffa8fb>
     4b0:	891d                	andi	a0,a0,7
     4b2:	0ea0a423          	sw	a0,232(ra)

000004b6 <inst_59>:
     4b6:	ffffc537          	lui	a0,0xffffc
     4ba:	fff50513          	addi	a0,a0,-1 # ffffbfff <_end+0xffff88fb>
     4be:	9959                	andi	a0,a0,-10
     4c0:	0ea0a623          	sw	a0,236(ra)

000004c4 <inst_60>:
     4c4:	ffff0537          	lui	a0,0xffff0
     4c8:	fff50513          	addi	a0,a0,-1 # fffeffff <_end+0xfffec8fb>
     4cc:	9975                	andi	a0,a0,-3
     4ce:	0ea0a823          	sw	a0,240(ra)

000004d2 <inst_61>:
     4d2:	fffe0537          	lui	a0,0xfffe0
     4d6:	fff50513          	addi	a0,a0,-1 # fffdffff <_end+0xfffdc8fb>
     4da:	8909                	andi	a0,a0,2
     4dc:	0ea0aa23          	sw	a0,244(ra)

000004e0 <inst_62>:
     4e0:	fffc0537          	lui	a0,0xfffc0
     4e4:	fff50513          	addi	a0,a0,-1 # fffbffff <_end+0xfffbc8fb>
     4e8:	997d                	andi	a0,a0,-1
     4ea:	0ea0ac23          	sw	a0,248(ra)

000004ee <inst_63>:
     4ee:	fff80537          	lui	a0,0xfff80
     4f2:	fff50513          	addi	a0,a0,-1 # fff7ffff <_end+0xfff7c8fb>
     4f6:	890d                	andi	a0,a0,3
     4f8:	0ea0ae23          	sw	a0,252(ra)

000004fc <inst_64>:
     4fc:	ffe00537          	lui	a0,0xffe00
     500:	fff50513          	addi	a0,a0,-1 # ffdfffff <_end+0xffdfc8fb>
     504:	892d                	andi	a0,a0,11
     506:	10a0a023          	sw	a0,256(ra)

0000050a <inst_65>:
     50a:	ffc00537          	lui	a0,0xffc00
     50e:	fff50513          	addi	a0,a0,-1 # ffbfffff <_end+0xffbfc8fb>
     512:	8911                	andi	a0,a0,4
     514:	10a0a223          	sw	a0,260(ra)

00000518 <inst_66>:
     518:	ff800537          	lui	a0,0xff800
     51c:	fff50513          	addi	a0,a0,-1 # ff7fffff <_end+0xff7fc8fb>
     520:	9975                	andi	a0,a0,-3
     522:	10a0a423          	sw	a0,264(ra)

00000526 <inst_67>:
     526:	ff000537          	lui	a0,0xff000
     52a:	fff50513          	addi	a0,a0,-1 # feffffff <_end+0xfeffc8fb>
     52e:	993d                	andi	a0,a0,-17
     530:	10a0a623          	sw	a0,268(ra)

00000534 <inst_68>:
     534:	fe000537          	lui	a0,0xfe000
     538:	fff50513          	addi	a0,a0,-1 # fdffffff <_end+0xfdffc8fb>
     53c:	8901                	andi	a0,a0,0
     53e:	10a0a823          	sw	a0,272(ra)

00000542 <inst_69>:
     542:	fc000537          	lui	a0,0xfc000
     546:	fff50513          	addi	a0,a0,-1 # fbffffff <_end+0xfbffc8fb>
     54a:	8941                	andi	a0,a0,16
     54c:	10a0aa23          	sw	a0,276(ra)

00000550 <inst_70>:
     550:	f8000537          	lui	a0,0xf8000
     554:	fff50513          	addi	a0,a0,-1 # f7ffffff <_end+0xf7ffc8fb>
     558:	893d                	andi	a0,a0,15
     55a:	10a0ac23          	sw	a0,280(ra)

0000055e <inst_71>:
     55e:	f0000537          	lui	a0,0xf0000
     562:	fff50513          	addi	a0,a0,-1 # efffffff <_end+0xefffc8fb>
     566:	8919                	andi	a0,a0,6
     568:	10a0ae23          	sw	a0,284(ra)

0000056c <inst_72>:
     56c:	e0000537          	lui	a0,0xe0000
     570:	fff50513          	addi	a0,a0,-1 # dfffffff <_end+0xdfffc8fb>
     574:	8915                	andi	a0,a0,5
     576:	12a0a023          	sw	a0,288(ra)

0000057a <inst_73>:
     57a:	c0000537          	lui	a0,0xc0000
     57e:	fff50513          	addi	a0,a0,-1 # bfffffff <_end+0xbfffc8fb>
     582:	9961                	andi	a0,a0,-8
     584:	12a0a223          	sw	a0,292(ra)

00000588 <inst_74>:
     588:	55555537          	lui	a0,0x55555
     58c:	55550513          	addi	a0,a0,1365 # 55555555 <_end+0x55551e51>
     590:	8911                	andi	a0,a0,4
     592:	12a0a423          	sw	a0,296(ra)

00000596 <inst_75>:
     596:	aaaab537          	lui	a0,0xaaaab
     59a:	aaa50513          	addi	a0,a0,-1366 # aaaaaaaa <_end+0xaaaa73a6>
     59e:	9959                	andi	a0,a0,-10
     5a0:	12a0a623          	sw	a0,300(ra)

000005a4 <inst_76>:
     5a4:	00300513          	li	a0,3
     5a8:	890d                	andi	a0,a0,3
     5aa:	12a0a823          	sw	a0,304(ra)

000005ae <inst_77>:
     5ae:	00300513          	li	a0,3
     5b2:	8915                	andi	a0,a0,5
     5b4:	12a0aa23          	sw	a0,308(ra)

000005b8 <inst_78>:
     5b8:	00300513          	li	a0,3
     5bc:	8929                	andi	a0,a0,10
     5be:	12a0ac23          	sw	a0,312(ra)

000005c2 <inst_79>:
     5c2:	00300513          	li	a0,3
     5c6:	8919                	andi	a0,a0,6
     5c8:	12a0ae23          	sw	a0,316(ra)

000005cc <inst_80>:
     5cc:	00300513          	li	a0,3
     5d0:	996d                	andi	a0,a0,-5
     5d2:	14a0a023          	sw	a0,320(ra)

000005d6 <inst_81>:
     5d6:	00300513          	li	a0,3
     5da:	8909                	andi	a0,a0,2
     5dc:	14a0a223          	sw	a0,324(ra)

000005e0 <inst_82>:
     5e0:	00300513          	li	a0,3
     5e4:	8911                	andi	a0,a0,4
     5e6:	14a0a423          	sw	a0,328(ra)

000005ea <inst_83>:
     5ea:	00300513          	li	a0,3
     5ee:	8925                	andi	a0,a0,9
     5f0:	14a0a623          	sw	a0,332(ra)

000005f4 <inst_84>:
     5f4:	00300513          	li	a0,3
     5f8:	8901                	andi	a0,a0,0
     5fa:	14a0a823          	sw	a0,336(ra)

000005fe <inst_85>:
     5fe:	00300513          	li	a0,3
     602:	892d                	andi	a0,a0,11
     604:	14a0aa23          	sw	a0,340(ra)

00000608 <inst_86>:
     608:	00300513          	li	a0,3
     60c:	891d                	andi	a0,a0,7
     60e:	14a0ac23          	sw	a0,344(ra)

00000612 <inst_87>:
     612:	00300513          	li	a0,3
     616:	997d                	andi	a0,a0,-1
     618:	14a0ae23          	sw	a0,348(ra)

0000061c <inst_88>:
     61c:	00300513          	li	a0,3
     620:	9971                	andi	a0,a0,-4
     622:	16a0a023          	sw	a0,352(ra)

00000626 <inst_89>:
     626:	55555537          	lui	a0,0x55555
     62a:	55550513          	addi	a0,a0,1365 # 55555555 <_end+0x55551e51>
     62e:	890d                	andi	a0,a0,3
     630:	16a0a223          	sw	a0,356(ra)

00000634 <inst_90>:
     634:	55555537          	lui	a0,0x55555
     638:	55550513          	addi	a0,a0,1365 # 55555555 <_end+0x55551e51>
     63c:	8915                	andi	a0,a0,5
     63e:	16a0a423          	sw	a0,360(ra)

00000642 <inst_91>:
     642:	55555537          	lui	a0,0x55555
     646:	55550513          	addi	a0,a0,1365 # 55555555 <_end+0x55551e51>
     64a:	8929                	andi	a0,a0,10
     64c:	16a0a623          	sw	a0,364(ra)

00000650 <inst_92>:
     650:	55555537          	lui	a0,0x55555
     654:	55550513          	addi	a0,a0,1365 # 55555555 <_end+0x55551e51>
     658:	8919                	andi	a0,a0,6
     65a:	16a0a823          	sw	a0,368(ra)

0000065e <inst_93>:
     65e:	55555537          	lui	a0,0x55555
     662:	55550513          	addi	a0,a0,1365 # 55555555 <_end+0x55551e51>
     666:	9979                	andi	a0,a0,-2
     668:	16a0aa23          	sw	a0,372(ra)

0000066c <inst_94>:
     66c:	55555537          	lui	a0,0x55555
     670:	55550513          	addi	a0,a0,1365 # 55555555 <_end+0x55551e51>
     674:	996d                	andi	a0,a0,-5
     676:	16a0ac23          	sw	a0,376(ra)

0000067a <inst_95>:
     67a:	55555537          	lui	a0,0x55555
     67e:	55550513          	addi	a0,a0,1365 # 55555555 <_end+0x55551e51>
     682:	8909                	andi	a0,a0,2
     684:	16a0ae23          	sw	a0,380(ra)

00000688 <inst_96>:
     688:	55555537          	lui	a0,0x55555
     68c:	55550513          	addi	a0,a0,1365 # 55555555 <_end+0x55551e51>
     690:	8925                	andi	a0,a0,9
     692:	18a0a023          	sw	a0,384(ra)

00000696 <inst_97>:
     696:	55555537          	lui	a0,0x55555
     69a:	55550513          	addi	a0,a0,1365 # 55555555 <_end+0x55551e51>
     69e:	8901                	andi	a0,a0,0
     6a0:	18a0a223          	sw	a0,388(ra)

000006a4 <inst_98>:
     6a4:	55555537          	lui	a0,0x55555
     6a8:	55550513          	addi	a0,a0,1365 # 55555555 <_end+0x55551e51>
     6ac:	892d                	andi	a0,a0,11
     6ae:	18a0a423          	sw	a0,392(ra)

000006b2 <inst_99>:
     6b2:	55555537          	lui	a0,0x55555
     6b6:	55550513          	addi	a0,a0,1365 # 55555555 <_end+0x55551e51>
     6ba:	891d                	andi	a0,a0,7
     6bc:	18a0a623          	sw	a0,396(ra)

000006c0 <inst_100>:
     6c0:	55555537          	lui	a0,0x55555
     6c4:	55550513          	addi	a0,a0,1365 # 55555555 <_end+0x55551e51>
     6c8:	997d                	andi	a0,a0,-1
     6ca:	18a0a823          	sw	a0,400(ra)

000006ce <inst_101>:
     6ce:	55555537          	lui	a0,0x55555
     6d2:	55550513          	addi	a0,a0,1365 # 55555555 <_end+0x55551e51>
     6d6:	9971                	andi	a0,a0,-4
     6d8:	18a0aa23          	sw	a0,404(ra)

000006dc <inst_102>:
     6dc:	aaaab537          	lui	a0,0xaaaab
     6e0:	aaa50513          	addi	a0,a0,-1366 # aaaaaaaa <_end+0xaaaa73a6>
     6e4:	890d                	andi	a0,a0,3
     6e6:	18a0ac23          	sw	a0,408(ra)

000006ea <inst_103>:
     6ea:	aaaab537          	lui	a0,0xaaaab
     6ee:	aaa50513          	addi	a0,a0,-1366 # aaaaaaaa <_end+0xaaaa73a6>
     6f2:	8915                	andi	a0,a0,5
     6f4:	18a0ae23          	sw	a0,412(ra)

000006f8 <inst_104>:
     6f8:	aaaab537          	lui	a0,0xaaaab
     6fc:	aaa50513          	addi	a0,a0,-1366 # aaaaaaaa <_end+0xaaaa73a6>
     700:	8929                	andi	a0,a0,10
     702:	1aa0a023          	sw	a0,416(ra)

00000706 <inst_105>:
     706:	aaaab537          	lui	a0,0xaaaab
     70a:	aaa50513          	addi	a0,a0,-1366 # aaaaaaaa <_end+0xaaaa73a6>
     70e:	8919                	andi	a0,a0,6
     710:	1aa0a223          	sw	a0,420(ra)

00000714 <inst_106>:
     714:	aaaab537          	lui	a0,0xaaaab
     718:	aaa50513          	addi	a0,a0,-1366 # aaaaaaaa <_end+0xaaaa73a6>
     71c:	9979                	andi	a0,a0,-2
     71e:	1aa0a423          	sw	a0,424(ra)

00000722 <inst_107>:
     722:	aaaab537          	lui	a0,0xaaaab
     726:	aaa50513          	addi	a0,a0,-1366 # aaaaaaaa <_end+0xaaaa73a6>
     72a:	996d                	andi	a0,a0,-5
     72c:	1aa0a623          	sw	a0,428(ra)

00000730 <inst_108>:
     730:	aaaab537          	lui	a0,0xaaaab
     734:	aaa50513          	addi	a0,a0,-1366 # aaaaaaaa <_end+0xaaaa73a6>
     738:	8909                	andi	a0,a0,2
     73a:	1aa0a823          	sw	a0,432(ra)

0000073e <inst_109>:
     73e:	aaaab537          	lui	a0,0xaaaab
     742:	aaa50513          	addi	a0,a0,-1366 # aaaaaaaa <_end+0xaaaa73a6>
     746:	8911                	andi	a0,a0,4
     748:	1aa0aa23          	sw	a0,436(ra)

0000074c <inst_110>:
     74c:	aaaab537          	lui	a0,0xaaaab
     750:	aaa50513          	addi	a0,a0,-1366 # aaaaaaaa <_end+0xaaaa73a6>
     754:	8925                	andi	a0,a0,9
     756:	1aa0ac23          	sw	a0,440(ra)

0000075a <inst_111>:
     75a:	aaaab537          	lui	a0,0xaaaab
     75e:	aaa50513          	addi	a0,a0,-1366 # aaaaaaaa <_end+0xaaaa73a6>
     762:	8901                	andi	a0,a0,0
     764:	1aa0ae23          	sw	a0,444(ra)

00000768 <inst_112>:
     768:	aaaab537          	lui	a0,0xaaaab
     76c:	aaa50513          	addi	a0,a0,-1366 # aaaaaaaa <_end+0xaaaa73a6>
     770:	892d                	andi	a0,a0,11
     772:	1ca0a023          	sw	a0,448(ra)

00000776 <inst_113>:
     776:	aaaab537          	lui	a0,0xaaaab
     77a:	aaa50513          	addi	a0,a0,-1366 # aaaaaaaa <_end+0xaaaa73a6>
     77e:	891d                	andi	a0,a0,7
     780:	1ca0a223          	sw	a0,452(ra)

00000784 <inst_114>:
     784:	aaaab537          	lui	a0,0xaaaab
     788:	aaa50513          	addi	a0,a0,-1366 # aaaaaaaa <_end+0xaaaa73a6>
     78c:	997d                	andi	a0,a0,-1
     78e:	1ca0a423          	sw	a0,456(ra)

00000792 <inst_115>:
     792:	aaaab537          	lui	a0,0xaaaab
     796:	aaa50513          	addi	a0,a0,-1366 # aaaaaaaa <_end+0xaaaa73a6>
     79a:	9971                	andi	a0,a0,-4
     79c:	1ca0a623          	sw	a0,460(ra)

000007a0 <inst_116>:
     7a0:	00500513          	li	a0,5
     7a4:	890d                	andi	a0,a0,3
     7a6:	1ca0a823          	sw	a0,464(ra)

000007aa <inst_117>:
     7aa:	00500513          	li	a0,5
     7ae:	8915                	andi	a0,a0,5
     7b0:	1ca0aa23          	sw	a0,468(ra)

000007b4 <inst_118>:
     7b4:	00500513          	li	a0,5
     7b8:	8929                	andi	a0,a0,10
     7ba:	1ca0ac23          	sw	a0,472(ra)

000007be <inst_119>:
     7be:	00500513          	li	a0,5
     7c2:	8919                	andi	a0,a0,6
     7c4:	1ca0ae23          	sw	a0,476(ra)

000007c8 <inst_120>:
     7c8:	00500513          	li	a0,5
     7cc:	9979                	andi	a0,a0,-2
     7ce:	1ea0a023          	sw	a0,480(ra)

000007d2 <inst_121>:
     7d2:	00500513          	li	a0,5
     7d6:	996d                	andi	a0,a0,-5
     7d8:	1ea0a223          	sw	a0,484(ra)

000007dc <inst_122>:
     7dc:	00500513          	li	a0,5
     7e0:	8911                	andi	a0,a0,4
     7e2:	1ea0a423          	sw	a0,488(ra)

000007e6 <inst_123>:
     7e6:	00500513          	li	a0,5
     7ea:	8925                	andi	a0,a0,9
     7ec:	1ea0a623          	sw	a0,492(ra)

000007f0 <inst_124>:
     7f0:	00500513          	li	a0,5
     7f4:	8901                	andi	a0,a0,0
     7f6:	1ea0a823          	sw	a0,496(ra)

000007fa <inst_125>:
     7fa:	00500513          	li	a0,5
     7fe:	892d                	andi	a0,a0,11
     800:	1ea0aa23          	sw	a0,500(ra)

00000804 <inst_126>:
     804:	00500513          	li	a0,5
     808:	891d                	andi	a0,a0,7
     80a:	1ea0ac23          	sw	a0,504(ra)

0000080e <inst_127>:
     80e:	00500513          	li	a0,5
     812:	997d                	andi	a0,a0,-1
     814:	1ea0ae23          	sw	a0,508(ra)

00000818 <inst_128>:
     818:	00500513          	li	a0,5
     81c:	9971                	andi	a0,a0,-4
     81e:	20a0a023          	sw	a0,512(ra)

00000822 <inst_129>:
     822:	33333537          	lui	a0,0x33333
     826:	33350513          	addi	a0,a0,819 # 33333333 <_end+0x3332fc2f>
     82a:	890d                	andi	a0,a0,3
     82c:	20a0a223          	sw	a0,516(ra)

00000830 <inst_130>:
     830:	33333537          	lui	a0,0x33333
     834:	33350513          	addi	a0,a0,819 # 33333333 <_end+0x3332fc2f>
     838:	8915                	andi	a0,a0,5
     83a:	20a0a423          	sw	a0,520(ra)

0000083e <inst_131>:
     83e:	33333537          	lui	a0,0x33333
     842:	33350513          	addi	a0,a0,819 # 33333333 <_end+0x3332fc2f>
     846:	8929                	andi	a0,a0,10
     848:	20a0a623          	sw	a0,524(ra)

0000084c <inst_132>:
     84c:	33333537          	lui	a0,0x33333
     850:	33350513          	addi	a0,a0,819 # 33333333 <_end+0x3332fc2f>
     854:	8919                	andi	a0,a0,6
     856:	20a0a823          	sw	a0,528(ra)

0000085a <inst_133>:
     85a:	33333537          	lui	a0,0x33333
     85e:	33350513          	addi	a0,a0,819 # 33333333 <_end+0x3332fc2f>
     862:	9979                	andi	a0,a0,-2
     864:	20a0aa23          	sw	a0,532(ra)

00000868 <inst_134>:
     868:	33333537          	lui	a0,0x33333
     86c:	33350513          	addi	a0,a0,819 # 33333333 <_end+0x3332fc2f>
     870:	996d                	andi	a0,a0,-5
     872:	20a0ac23          	sw	a0,536(ra)

00000876 <inst_135>:
     876:	33333537          	lui	a0,0x33333
     87a:	33350513          	addi	a0,a0,819 # 33333333 <_end+0x3332fc2f>
     87e:	8909                	andi	a0,a0,2
     880:	20a0ae23          	sw	a0,540(ra)

00000884 <inst_136>:
     884:	33333537          	lui	a0,0x33333
     888:	33350513          	addi	a0,a0,819 # 33333333 <_end+0x3332fc2f>
     88c:	8911                	andi	a0,a0,4
     88e:	22a0a023          	sw	a0,544(ra)

00000892 <inst_137>:
     892:	33333537          	lui	a0,0x33333
     896:	33350513          	addi	a0,a0,819 # 33333333 <_end+0x3332fc2f>
     89a:	8925                	andi	a0,a0,9
     89c:	22a0a223          	sw	a0,548(ra)

000008a0 <inst_138>:
     8a0:	33333537          	lui	a0,0x33333
     8a4:	33350513          	addi	a0,a0,819 # 33333333 <_end+0x3332fc2f>
     8a8:	8901                	andi	a0,a0,0
     8aa:	22a0a423          	sw	a0,552(ra)

000008ae <inst_139>:
     8ae:	33333537          	lui	a0,0x33333
     8b2:	33350513          	addi	a0,a0,819 # 33333333 <_end+0x3332fc2f>
     8b6:	892d                	andi	a0,a0,11
     8b8:	22a0a623          	sw	a0,556(ra)

000008bc <inst_140>:
     8bc:	33333537          	lui	a0,0x33333
     8c0:	33350513          	addi	a0,a0,819 # 33333333 <_end+0x3332fc2f>
     8c4:	891d                	andi	a0,a0,7
     8c6:	22a0a823          	sw	a0,560(ra)

000008ca <inst_141>:
     8ca:	33333537          	lui	a0,0x33333
     8ce:	33350513          	addi	a0,a0,819 # 33333333 <_end+0x3332fc2f>
     8d2:	997d                	andi	a0,a0,-1
     8d4:	22a0aa23          	sw	a0,564(ra)

000008d8 <inst_142>:
     8d8:	33333537          	lui	a0,0x33333
     8dc:	33350513          	addi	a0,a0,819 # 33333333 <_end+0x3332fc2f>
     8e0:	9971                	andi	a0,a0,-4
     8e2:	22a0ac23          	sw	a0,568(ra)

000008e6 <inst_143>:
     8e6:	66666537          	lui	a0,0x66666
     8ea:	66650513          	addi	a0,a0,1638 # 66666666 <_end+0x66662f62>
     8ee:	890d                	andi	a0,a0,3
     8f0:	22a0ae23          	sw	a0,572(ra)

000008f4 <inst_144>:
     8f4:	66666537          	lui	a0,0x66666
     8f8:	66650513          	addi	a0,a0,1638 # 66666666 <_end+0x66662f62>
     8fc:	8915                	andi	a0,a0,5
     8fe:	24a0a023          	sw	a0,576(ra)

00000902 <inst_145>:
     902:	66666537          	lui	a0,0x66666
     906:	66650513          	addi	a0,a0,1638 # 66666666 <_end+0x66662f62>
     90a:	8929                	andi	a0,a0,10
     90c:	24a0a223          	sw	a0,580(ra)

00000910 <inst_146>:
     910:	66666537          	lui	a0,0x66666
     914:	66650513          	addi	a0,a0,1638 # 66666666 <_end+0x66662f62>
     918:	8919                	andi	a0,a0,6
     91a:	24a0a423          	sw	a0,584(ra)

0000091e <inst_147>:
     91e:	66666537          	lui	a0,0x66666
     922:	66650513          	addi	a0,a0,1638 # 66666666 <_end+0x66662f62>
     926:	9979                	andi	a0,a0,-2
     928:	24a0a623          	sw	a0,588(ra)

0000092c <inst_148>:
     92c:	66666537          	lui	a0,0x66666
     930:	66650513          	addi	a0,a0,1638 # 66666666 <_end+0x66662f62>
     934:	996d                	andi	a0,a0,-5
     936:	24a0a823          	sw	a0,592(ra)

0000093a <inst_149>:
     93a:	66666537          	lui	a0,0x66666
     93e:	66650513          	addi	a0,a0,1638 # 66666666 <_end+0x66662f62>
     942:	8909                	andi	a0,a0,2
     944:	24a0aa23          	sw	a0,596(ra)

00000948 <inst_150>:
     948:	66666537          	lui	a0,0x66666
     94c:	66650513          	addi	a0,a0,1638 # 66666666 <_end+0x66662f62>
     950:	8911                	andi	a0,a0,4
     952:	24a0ac23          	sw	a0,600(ra)

00000956 <inst_151>:
     956:	66666537          	lui	a0,0x66666
     95a:	66650513          	addi	a0,a0,1638 # 66666666 <_end+0x66662f62>
     95e:	8925                	andi	a0,a0,9
     960:	24a0ae23          	sw	a0,604(ra)

00000964 <inst_152>:
     964:	66666537          	lui	a0,0x66666
     968:	66650513          	addi	a0,a0,1638 # 66666666 <_end+0x66662f62>
     96c:	8901                	andi	a0,a0,0
     96e:	26a0a023          	sw	a0,608(ra)

00000972 <inst_153>:
     972:	66666537          	lui	a0,0x66666
     976:	66650513          	addi	a0,a0,1638 # 66666666 <_end+0x66662f62>
     97a:	892d                	andi	a0,a0,11
     97c:	26a0a223          	sw	a0,612(ra)

00000980 <inst_154>:
     980:	66666537          	lui	a0,0x66666
     984:	66650513          	addi	a0,a0,1638 # 66666666 <_end+0x66662f62>
     988:	891d                	andi	a0,a0,7
     98a:	26a0a423          	sw	a0,616(ra)

0000098e <inst_155>:
     98e:	66666537          	lui	a0,0x66666
     992:	66650513          	addi	a0,a0,1638 # 66666666 <_end+0x66662f62>
     996:	997d                	andi	a0,a0,-1
     998:	26a0a623          	sw	a0,620(ra)

0000099c <inst_156>:
     99c:	66666537          	lui	a0,0x66666
     9a0:	66650513          	addi	a0,a0,1638 # 66666666 <_end+0x66662f62>
     9a4:	9971                	andi	a0,a0,-4
     9a6:	26a0a823          	sw	a0,624(ra)

000009aa <inst_157>:
     9aa:	ffff5537          	lui	a0,0xffff5
     9ae:	afc50513          	addi	a0,a0,-1284 # ffff4afc <_end+0xffff13f8>
     9b2:	890d                	andi	a0,a0,3
     9b4:	26a0aa23          	sw	a0,628(ra)

000009b8 <inst_158>:
     9b8:	ffff5537          	lui	a0,0xffff5
     9bc:	afc50513          	addi	a0,a0,-1284 # ffff4afc <_end+0xffff13f8>
     9c0:	8915                	andi	a0,a0,5
     9c2:	26a0ac23          	sw	a0,632(ra)

000009c6 <inst_159>:
     9c6:	ffff5537          	lui	a0,0xffff5
     9ca:	afc50513          	addi	a0,a0,-1284 # ffff4afc <_end+0xffff13f8>
     9ce:	8929                	andi	a0,a0,10
     9d0:	26a0ae23          	sw	a0,636(ra)

000009d4 <inst_160>:
     9d4:	ffff5537          	lui	a0,0xffff5
     9d8:	afc50513          	addi	a0,a0,-1284 # ffff4afc <_end+0xffff13f8>
     9dc:	8919                	andi	a0,a0,6
     9de:	28a0a023          	sw	a0,640(ra)

000009e2 <inst_161>:
     9e2:	ffff5537          	lui	a0,0xffff5
     9e6:	afc50513          	addi	a0,a0,-1284 # ffff4afc <_end+0xffff13f8>
     9ea:	9979                	andi	a0,a0,-2
     9ec:	28a0a223          	sw	a0,644(ra)

000009f0 <inst_162>:
     9f0:	ffff5537          	lui	a0,0xffff5
     9f4:	afc50513          	addi	a0,a0,-1284 # ffff4afc <_end+0xffff13f8>
     9f8:	996d                	andi	a0,a0,-5
     9fa:	28a0a423          	sw	a0,648(ra)

000009fe <inst_163>:
     9fe:	ffff5537          	lui	a0,0xffff5
     a02:	afc50513          	addi	a0,a0,-1284 # ffff4afc <_end+0xffff13f8>
     a06:	8909                	andi	a0,a0,2
     a08:	28a0a623          	sw	a0,652(ra)

00000a0c <inst_164>:
     a0c:	ffff5537          	lui	a0,0xffff5
     a10:	afc50513          	addi	a0,a0,-1284 # ffff4afc <_end+0xffff13f8>
     a14:	8911                	andi	a0,a0,4
     a16:	28a0a823          	sw	a0,656(ra)

00000a1a <inst_165>:
     a1a:	ffff5537          	lui	a0,0xffff5
     a1e:	afc50513          	addi	a0,a0,-1284 # ffff4afc <_end+0xffff13f8>
     a22:	8925                	andi	a0,a0,9
     a24:	28a0aa23          	sw	a0,660(ra)

00000a28 <inst_166>:
     a28:	ffff5537          	lui	a0,0xffff5
     a2c:	afc50513          	addi	a0,a0,-1284 # ffff4afc <_end+0xffff13f8>
     a30:	892d                	andi	a0,a0,11
     a32:	28a0ac23          	sw	a0,664(ra)

00000a36 <inst_167>:
     a36:	ffff5537          	lui	a0,0xffff5
     a3a:	afc50513          	addi	a0,a0,-1284 # ffff4afc <_end+0xffff13f8>
     a3e:	891d                	andi	a0,a0,7
     a40:	28a0ae23          	sw	a0,668(ra)

00000a44 <inst_168>:
     a44:	ffff5537          	lui	a0,0xffff5
     a48:	afc50513          	addi	a0,a0,-1284 # ffff4afc <_end+0xffff13f8>
     a4c:	997d                	andi	a0,a0,-1
     a4e:	2aa0a023          	sw	a0,672(ra)

00000a52 <inst_169>:
     a52:	ffff5537          	lui	a0,0xffff5
     a56:	afc50513          	addi	a0,a0,-1284 # ffff4afc <_end+0xffff13f8>
     a5a:	9971                	andi	a0,a0,-4
     a5c:	2aa0a223          	sw	a0,676(ra)

00000a60 <inst_170>:
     a60:	0000b537          	lui	a0,0xb
     a64:	50450513          	addi	a0,a0,1284 # b504 <_end+0x7e00>
     a68:	890d                	andi	a0,a0,3
     a6a:	2aa0a423          	sw	a0,680(ra)

00000a6e <inst_171>:
     a6e:	0000b537          	lui	a0,0xb
     a72:	50450513          	addi	a0,a0,1284 # b504 <_end+0x7e00>
     a76:	8915                	andi	a0,a0,5
     a78:	2aa0a623          	sw	a0,684(ra)

00000a7c <inst_172>:
     a7c:	0000b537          	lui	a0,0xb
     a80:	50450513          	addi	a0,a0,1284 # b504 <_end+0x7e00>
     a84:	8929                	andi	a0,a0,10
     a86:	2aa0a823          	sw	a0,688(ra)

00000a8a <inst_173>:
     a8a:	0000b537          	lui	a0,0xb
     a8e:	50450513          	addi	a0,a0,1284 # b504 <_end+0x7e00>
     a92:	8919                	andi	a0,a0,6
     a94:	2aa0aa23          	sw	a0,692(ra)

00000a98 <inst_174>:
     a98:	0000b537          	lui	a0,0xb
     a9c:	50450513          	addi	a0,a0,1284 # b504 <_end+0x7e00>
     aa0:	9979                	andi	a0,a0,-2
     aa2:	2aa0ac23          	sw	a0,696(ra)

00000aa6 <inst_175>:
     aa6:	0000b537          	lui	a0,0xb
     aaa:	50450513          	addi	a0,a0,1284 # b504 <_end+0x7e00>
     aae:	996d                	andi	a0,a0,-5
     ab0:	2aa0ae23          	sw	a0,700(ra)

00000ab4 <inst_176>:
     ab4:	0000b537          	lui	a0,0xb
     ab8:	50450513          	addi	a0,a0,1284 # b504 <_end+0x7e00>
     abc:	8909                	andi	a0,a0,2
     abe:	2ca0a023          	sw	a0,704(ra)

00000ac2 <inst_177>:
     ac2:	0000b537          	lui	a0,0xb
     ac6:	50450513          	addi	a0,a0,1284 # b504 <_end+0x7e00>
     aca:	8911                	andi	a0,a0,4
     acc:	2ca0a223          	sw	a0,708(ra)

00000ad0 <inst_178>:
     ad0:	0000b537          	lui	a0,0xb
     ad4:	50450513          	addi	a0,a0,1284 # b504 <_end+0x7e00>
     ad8:	8925                	andi	a0,a0,9
     ada:	2ca0a423          	sw	a0,712(ra)

00000ade <inst_179>:
     ade:	0000b537          	lui	a0,0xb
     ae2:	50450513          	addi	a0,a0,1284 # b504 <_end+0x7e00>
     ae6:	8901                	andi	a0,a0,0
     ae8:	2ca0a623          	sw	a0,716(ra)

00000aec <inst_180>:
     aec:	0000b537          	lui	a0,0xb
     af0:	50450513          	addi	a0,a0,1284 # b504 <_end+0x7e00>
     af4:	892d                	andi	a0,a0,11
     af6:	2ca0a823          	sw	a0,720(ra)

00000afa <inst_181>:
     afa:	0000b537          	lui	a0,0xb
     afe:	50450513          	addi	a0,a0,1284 # b504 <_end+0x7e00>
     b02:	891d                	andi	a0,a0,7
     b04:	2ca0aa23          	sw	a0,724(ra)

00000b08 <inst_182>:
     b08:	0000b537          	lui	a0,0xb
     b0c:	50450513          	addi	a0,a0,1284 # b504 <_end+0x7e00>
     b10:	997d                	andi	a0,a0,-1
     b12:	2ca0ac23          	sw	a0,728(ra)

00000b16 <inst_183>:
     b16:	0000b537          	lui	a0,0xb
     b1a:	50450513          	addi	a0,a0,1284 # b504 <_end+0x7e00>
     b1e:	9971                	andi	a0,a0,-4
     b20:	2ca0ae23          	sw	a0,732(ra)

00000b24 <inst_184>:
     b24:	00200513          	li	a0,2
     b28:	890d                	andi	a0,a0,3
     b2a:	2ea0a023          	sw	a0,736(ra)

00000b2e <inst_185>:
     b2e:	00200513          	li	a0,2
     b32:	8929                	andi	a0,a0,10
     b34:	2ea0a223          	sw	a0,740(ra)

00000b38 <inst_186>:
     b38:	00200513          	li	a0,2
     b3c:	8919                	andi	a0,a0,6
     b3e:	2ea0a423          	sw	a0,744(ra)

00000b42 <inst_187>:
     b42:	00200513          	li	a0,2
     b46:	9979                	andi	a0,a0,-2
     b48:	2ea0a623          	sw	a0,748(ra)

00000b4c <inst_188>:
     b4c:	00200513          	li	a0,2
     b50:	996d                	andi	a0,a0,-5
     b52:	2ea0a823          	sw	a0,752(ra)

00000b56 <inst_189>:
     b56:	00200513          	li	a0,2
     b5a:	8909                	andi	a0,a0,2
     b5c:	2ea0aa23          	sw	a0,756(ra)

00000b60 <inst_190>:
     b60:	00200513          	li	a0,2
     b64:	8911                	andi	a0,a0,4
     b66:	2ea0ac23          	sw	a0,760(ra)

00000b6a <inst_191>:
     b6a:	00200513          	li	a0,2
     b6e:	8925                	andi	a0,a0,9
     b70:	2ea0ae23          	sw	a0,764(ra)

00000b74 <inst_192>:
     b74:	00200513          	li	a0,2
     b78:	8901                	andi	a0,a0,0
     b7a:	30a0a023          	sw	a0,768(ra)

00000b7e <inst_193>:
     b7e:	00200513          	li	a0,2
     b82:	892d                	andi	a0,a0,11
     b84:	30a0a223          	sw	a0,772(ra)

00000b88 <inst_194>:
     b88:	00200513          	li	a0,2
     b8c:	891d                	andi	a0,a0,7
     b8e:	30a0a423          	sw	a0,776(ra)

00000b92 <inst_195>:
     b92:	00200513          	li	a0,2
     b96:	997d                	andi	a0,a0,-1
     b98:	30a0a623          	sw	a0,780(ra)

00000b9c <inst_196>:
     b9c:	00200513          	li	a0,2
     ba0:	9971                	andi	a0,a0,-4
     ba2:	30a0a823          	sw	a0,784(ra)

00000ba6 <inst_197>:
     ba6:	55555537          	lui	a0,0x55555
     baa:	55450513          	addi	a0,a0,1364 # 55555554 <_end+0x55551e50>
     bae:	890d                	andi	a0,a0,3
     bb0:	30a0aa23          	sw	a0,788(ra)

00000bb4 <inst_198>:
     bb4:	55555537          	lui	a0,0x55555
     bb8:	55450513          	addi	a0,a0,1364 # 55555554 <_end+0x55551e50>
     bbc:	8915                	andi	a0,a0,5
     bbe:	30a0ac23          	sw	a0,792(ra)

00000bc2 <inst_199>:
     bc2:	55555537          	lui	a0,0x55555
     bc6:	55450513          	addi	a0,a0,1364 # 55555554 <_end+0x55551e50>
     bca:	8929                	andi	a0,a0,10
     bcc:	30a0ae23          	sw	a0,796(ra)

00000bd0 <inst_200>:
     bd0:	55555537          	lui	a0,0x55555
     bd4:	55450513          	addi	a0,a0,1364 # 55555554 <_end+0x55551e50>
     bd8:	8919                	andi	a0,a0,6
     bda:	32a0a023          	sw	a0,800(ra)

00000bde <inst_201>:
     bde:	55555537          	lui	a0,0x55555
     be2:	55450513          	addi	a0,a0,1364 # 55555554 <_end+0x55551e50>
     be6:	9979                	andi	a0,a0,-2
     be8:	32a0a223          	sw	a0,804(ra)

00000bec <inst_202>:
     bec:	55555537          	lui	a0,0x55555
     bf0:	55450513          	addi	a0,a0,1364 # 55555554 <_end+0x55551e50>
     bf4:	996d                	andi	a0,a0,-5
     bf6:	32a0a423          	sw	a0,808(ra)

00000bfa <inst_203>:
     bfa:	55555537          	lui	a0,0x55555
     bfe:	55450513          	addi	a0,a0,1364 # 55555554 <_end+0x55551e50>
     c02:	8909                	andi	a0,a0,2
     c04:	32a0a623          	sw	a0,812(ra)

00000c08 <inst_204>:
     c08:	55555537          	lui	a0,0x55555
     c0c:	55450513          	addi	a0,a0,1364 # 55555554 <_end+0x55551e50>
     c10:	8911                	andi	a0,a0,4
     c12:	32a0a823          	sw	a0,816(ra)

00000c16 <inst_205>:
     c16:	55555537          	lui	a0,0x55555
     c1a:	55450513          	addi	a0,a0,1364 # 55555554 <_end+0x55551e50>
     c1e:	8925                	andi	a0,a0,9
     c20:	32a0aa23          	sw	a0,820(ra)

00000c24 <inst_206>:
     c24:	55555537          	lui	a0,0x55555
     c28:	55450513          	addi	a0,a0,1364 # 55555554 <_end+0x55551e50>
     c2c:	8901                	andi	a0,a0,0
     c2e:	32a0ac23          	sw	a0,824(ra)

00000c32 <inst_207>:
     c32:	55555537          	lui	a0,0x55555
     c36:	55450513          	addi	a0,a0,1364 # 55555554 <_end+0x55551e50>
     c3a:	892d                	andi	a0,a0,11
     c3c:	32a0ae23          	sw	a0,828(ra)

00000c40 <inst_208>:
     c40:	55555537          	lui	a0,0x55555
     c44:	55450513          	addi	a0,a0,1364 # 55555554 <_end+0x55551e50>
     c48:	891d                	andi	a0,a0,7
     c4a:	34a0a023          	sw	a0,832(ra)

00000c4e <inst_209>:
     c4e:	55555537          	lui	a0,0x55555
     c52:	55450513          	addi	a0,a0,1364 # 55555554 <_end+0x55551e50>
     c56:	997d                	andi	a0,a0,-1
     c58:	34a0a223          	sw	a0,836(ra)

00000c5c <inst_210>:
     c5c:	55555537          	lui	a0,0x55555
     c60:	55450513          	addi	a0,a0,1364 # 55555554 <_end+0x55551e50>
     c64:	9971                	andi	a0,a0,-4
     c66:	34a0a423          	sw	a0,840(ra)

00000c6a <inst_211>:
     c6a:	00000513          	li	a0,0
     c6e:	890d                	andi	a0,a0,3
     c70:	34a0a623          	sw	a0,844(ra)

00000c74 <inst_212>:
     c74:	00000513          	li	a0,0
     c78:	8915                	andi	a0,a0,5
     c7a:	34a0a823          	sw	a0,848(ra)

00000c7e <inst_213>:
     c7e:	00000513          	li	a0,0
     c82:	8929                	andi	a0,a0,10
     c84:	34a0aa23          	sw	a0,852(ra)

00000c88 <inst_214>:
     c88:	00000513          	li	a0,0
     c8c:	8919                	andi	a0,a0,6
     c8e:	34a0ac23          	sw	a0,856(ra)

00000c92 <inst_215>:
     c92:	00000513          	li	a0,0
     c96:	9979                	andi	a0,a0,-2
     c98:	34a0ae23          	sw	a0,860(ra)

00000c9c <inst_216>:
     c9c:	00000513          	li	a0,0
     ca0:	996d                	andi	a0,a0,-5
     ca2:	36a0a023          	sw	a0,864(ra)

00000ca6 <inst_217>:
     ca6:	00000513          	li	a0,0
     caa:	8909                	andi	a0,a0,2
     cac:	36a0a223          	sw	a0,868(ra)

00000cb0 <inst_218>:
     cb0:	00000513          	li	a0,0
     cb4:	8925                	andi	a0,a0,9
     cb6:	36a0a423          	sw	a0,872(ra)

00000cba <inst_219>:
     cba:	00000513          	li	a0,0
     cbe:	8901                	andi	a0,a0,0
     cc0:	36a0a623          	sw	a0,876(ra)

00000cc4 <inst_220>:
     cc4:	00000513          	li	a0,0
     cc8:	892d                	andi	a0,a0,11
     cca:	36a0a823          	sw	a0,880(ra)

00000cce <inst_221>:
     cce:	00000513          	li	a0,0
     cd2:	891d                	andi	a0,a0,7
     cd4:	36a0aa23          	sw	a0,884(ra)

00000cd8 <inst_222>:
     cd8:	00000513          	li	a0,0
     cdc:	997d                	andi	a0,a0,-1
     cde:	36a0ac23          	sw	a0,888(ra)

00000ce2 <inst_223>:
     ce2:	00000513          	li	a0,0
     ce6:	9971                	andi	a0,a0,-4
     ce8:	36a0ae23          	sw	a0,892(ra)

00000cec <inst_224>:
     cec:	00400513          	li	a0,4
     cf0:	890d                	andi	a0,a0,3
     cf2:	38a0a023          	sw	a0,896(ra)

00000cf6 <inst_225>:
     cf6:	00400513          	li	a0,4
     cfa:	8915                	andi	a0,a0,5
     cfc:	38a0a223          	sw	a0,900(ra)

00000d00 <inst_226>:
     d00:	00400513          	li	a0,4
     d04:	8919                	andi	a0,a0,6
     d06:	38a0a423          	sw	a0,904(ra)

00000d0a <inst_227>:
     d0a:	00400513          	li	a0,4
     d0e:	9979                	andi	a0,a0,-2
     d10:	38a0a623          	sw	a0,908(ra)

00000d14 <inst_228>:
     d14:	00400513          	li	a0,4
     d18:	996d                	andi	a0,a0,-5
     d1a:	38a0a823          	sw	a0,912(ra)

00000d1e <inst_229>:
     d1e:	00400513          	li	a0,4
     d22:	8909                	andi	a0,a0,2
     d24:	38a0aa23          	sw	a0,916(ra)

00000d28 <inst_230>:
     d28:	00400513          	li	a0,4
     d2c:	8911                	andi	a0,a0,4
     d2e:	38a0ac23          	sw	a0,920(ra)

00000d32 <inst_231>:
     d32:	00400513          	li	a0,4
     d36:	8925                	andi	a0,a0,9
     d38:	38a0ae23          	sw	a0,924(ra)

00000d3c <inst_232>:
     d3c:	00400513          	li	a0,4
     d40:	8901                	andi	a0,a0,0
     d42:	3aa0a023          	sw	a0,928(ra)

00000d46 <inst_233>:
     d46:	00400513          	li	a0,4
     d4a:	892d                	andi	a0,a0,11
     d4c:	3aa0a223          	sw	a0,932(ra)

00000d50 <inst_234>:
     d50:	00400513          	li	a0,4
     d54:	891d                	andi	a0,a0,7
     d56:	3aa0a423          	sw	a0,936(ra)

00000d5a <inst_235>:
     d5a:	00400513          	li	a0,4
     d5e:	997d                	andi	a0,a0,-1
     d60:	3aa0a623          	sw	a0,940(ra)

00000d64 <inst_236>:
     d64:	00400513          	li	a0,4
     d68:	9971                	andi	a0,a0,-4
     d6a:	3aa0a823          	sw	a0,944(ra)

00000d6e <inst_237>:
     d6e:	33333537          	lui	a0,0x33333
     d72:	33250513          	addi	a0,a0,818 # 33333332 <_end+0x3332fc2e>
     d76:	890d                	andi	a0,a0,3
     d78:	3aa0aa23          	sw	a0,948(ra)

00000d7c <inst_238>:
     d7c:	33333537          	lui	a0,0x33333
     d80:	33250513          	addi	a0,a0,818 # 33333332 <_end+0x3332fc2e>
     d84:	8915                	andi	a0,a0,5
     d86:	3aa0ac23          	sw	a0,952(ra)

00000d8a <inst_239>:
     d8a:	33333537          	lui	a0,0x33333
     d8e:	33250513          	addi	a0,a0,818 # 33333332 <_end+0x3332fc2e>
     d92:	8929                	andi	a0,a0,10
     d94:	3aa0ae23          	sw	a0,956(ra)

00000d98 <inst_240>:
     d98:	33333537          	lui	a0,0x33333
     d9c:	33250513          	addi	a0,a0,818 # 33333332 <_end+0x3332fc2e>
     da0:	8919                	andi	a0,a0,6
     da2:	3ca0a023          	sw	a0,960(ra)

00000da6 <inst_241>:
     da6:	33333537          	lui	a0,0x33333
     daa:	33250513          	addi	a0,a0,818 # 33333332 <_end+0x3332fc2e>
     dae:	9979                	andi	a0,a0,-2
     db0:	3ca0a223          	sw	a0,964(ra)

00000db4 <inst_242>:
     db4:	33333537          	lui	a0,0x33333
     db8:	33250513          	addi	a0,a0,818 # 33333332 <_end+0x3332fc2e>
     dbc:	996d                	andi	a0,a0,-5
     dbe:	3ca0a423          	sw	a0,968(ra)

00000dc2 <inst_243>:
     dc2:	33333537          	lui	a0,0x33333
     dc6:	33250513          	addi	a0,a0,818 # 33333332 <_end+0x3332fc2e>
     dca:	8909                	andi	a0,a0,2
     dcc:	3ca0a623          	sw	a0,972(ra)

00000dd0 <inst_244>:
     dd0:	33333537          	lui	a0,0x33333
     dd4:	33250513          	addi	a0,a0,818 # 33333332 <_end+0x3332fc2e>
     dd8:	8911                	andi	a0,a0,4
     dda:	3ca0a823          	sw	a0,976(ra)

00000dde <inst_245>:
     dde:	33333537          	lui	a0,0x33333
     de2:	33250513          	addi	a0,a0,818 # 33333332 <_end+0x3332fc2e>
     de6:	8925                	andi	a0,a0,9
     de8:	3ca0aa23          	sw	a0,980(ra)

00000dec <inst_246>:
     dec:	33333537          	lui	a0,0x33333
     df0:	33250513          	addi	a0,a0,818 # 33333332 <_end+0x3332fc2e>
     df4:	8901                	andi	a0,a0,0
     df6:	3ca0ac23          	sw	a0,984(ra)

00000dfa <inst_247>:
     dfa:	33333537          	lui	a0,0x33333
     dfe:	33250513          	addi	a0,a0,818 # 33333332 <_end+0x3332fc2e>
     e02:	892d                	andi	a0,a0,11
     e04:	3ca0ae23          	sw	a0,988(ra)

00000e08 <inst_248>:
     e08:	33333537          	lui	a0,0x33333
     e0c:	33250513          	addi	a0,a0,818 # 33333332 <_end+0x3332fc2e>
     e10:	891d                	andi	a0,a0,7
     e12:	3ea0a023          	sw	a0,992(ra)

00000e16 <inst_249>:
     e16:	33333537          	lui	a0,0x33333
     e1a:	33250513          	addi	a0,a0,818 # 33333332 <_end+0x3332fc2e>
     e1e:	997d                	andi	a0,a0,-1
     e20:	3ea0a223          	sw	a0,996(ra)

00000e24 <inst_250>:
     e24:	33333537          	lui	a0,0x33333
     e28:	33250513          	addi	a0,a0,818 # 33333332 <_end+0x3332fc2e>
     e2c:	9971                	andi	a0,a0,-4
     e2e:	3ea0a423          	sw	a0,1000(ra)

00000e32 <inst_251>:
     e32:	66666537          	lui	a0,0x66666
     e36:	66550513          	addi	a0,a0,1637 # 66666665 <_end+0x66662f61>
     e3a:	890d                	andi	a0,a0,3
     e3c:	3ea0a623          	sw	a0,1004(ra)

00000e40 <inst_252>:
     e40:	66666537          	lui	a0,0x66666
     e44:	66550513          	addi	a0,a0,1637 # 66666665 <_end+0x66662f61>
     e48:	8915                	andi	a0,a0,5
     e4a:	3ea0a823          	sw	a0,1008(ra)

00000e4e <inst_253>:
     e4e:	66666537          	lui	a0,0x66666
     e52:	66550513          	addi	a0,a0,1637 # 66666665 <_end+0x66662f61>
     e56:	8929                	andi	a0,a0,10
     e58:	3ea0aa23          	sw	a0,1012(ra)

00000e5c <inst_254>:
     e5c:	66666537          	lui	a0,0x66666
     e60:	66550513          	addi	a0,a0,1637 # 66666665 <_end+0x66662f61>
     e64:	8919                	andi	a0,a0,6
     e66:	3ea0ac23          	sw	a0,1016(ra)

00000e6a <inst_255>:
     e6a:	66666537          	lui	a0,0x66666
     e6e:	66550513          	addi	a0,a0,1637 # 66666665 <_end+0x66662f61>
     e72:	9979                	andi	a0,a0,-2
     e74:	3ea0ae23          	sw	a0,1020(ra)

00000e78 <inst_256>:
     e78:	66666537          	lui	a0,0x66666
     e7c:	66550513          	addi	a0,a0,1637 # 66666665 <_end+0x66662f61>
     e80:	996d                	andi	a0,a0,-5
     e82:	40a0a023          	sw	a0,1024(ra)

00000e86 <inst_257>:
     e86:	66666537          	lui	a0,0x66666
     e8a:	66550513          	addi	a0,a0,1637 # 66666665 <_end+0x66662f61>
     e8e:	8909                	andi	a0,a0,2
     e90:	40a0a223          	sw	a0,1028(ra)

00000e94 <inst_258>:
     e94:	66666537          	lui	a0,0x66666
     e98:	66550513          	addi	a0,a0,1637 # 66666665 <_end+0x66662f61>
     e9c:	8911                	andi	a0,a0,4
     e9e:	40a0a423          	sw	a0,1032(ra)

00000ea2 <inst_259>:
     ea2:	66666537          	lui	a0,0x66666
     ea6:	66550513          	addi	a0,a0,1637 # 66666665 <_end+0x66662f61>
     eaa:	8925                	andi	a0,a0,9
     eac:	40a0a623          	sw	a0,1036(ra)

00000eb0 <inst_260>:
     eb0:	66666537          	lui	a0,0x66666
     eb4:	66550513          	addi	a0,a0,1637 # 66666665 <_end+0x66662f61>
     eb8:	8901                	andi	a0,a0,0
     eba:	40a0a823          	sw	a0,1040(ra)

00000ebe <inst_261>:
     ebe:	66666537          	lui	a0,0x66666
     ec2:	66550513          	addi	a0,a0,1637 # 66666665 <_end+0x66662f61>
     ec6:	892d                	andi	a0,a0,11
     ec8:	40a0aa23          	sw	a0,1044(ra)

00000ecc <inst_262>:
     ecc:	66666537          	lui	a0,0x66666
     ed0:	66550513          	addi	a0,a0,1637 # 66666665 <_end+0x66662f61>
     ed4:	891d                	andi	a0,a0,7
     ed6:	40a0ac23          	sw	a0,1048(ra)

00000eda <inst_263>:
     eda:	66666537          	lui	a0,0x66666
     ede:	66550513          	addi	a0,a0,1637 # 66666665 <_end+0x66662f61>
     ee2:	997d                	andi	a0,a0,-1
     ee4:	40a0ae23          	sw	a0,1052(ra)

00000ee8 <inst_264>:
     ee8:	66666537          	lui	a0,0x66666
     eec:	66550513          	addi	a0,a0,1637 # 66666665 <_end+0x66662f61>
     ef0:	9971                	andi	a0,a0,-4
     ef2:	42a0a023          	sw	a0,1056(ra)

00000ef6 <inst_265>:
     ef6:	0000b537          	lui	a0,0xb
     efa:	50350513          	addi	a0,a0,1283 # b503 <_end+0x7dff>
     efe:	890d                	andi	a0,a0,3
     f00:	42a0a223          	sw	a0,1060(ra)

00000f04 <inst_266>:
     f04:	0000b537          	lui	a0,0xb
     f08:	50350513          	addi	a0,a0,1283 # b503 <_end+0x7dff>
     f0c:	8915                	andi	a0,a0,5
     f0e:	42a0a423          	sw	a0,1064(ra)

00000f12 <inst_267>:
     f12:	0000b537          	lui	a0,0xb
     f16:	50350513          	addi	a0,a0,1283 # b503 <_end+0x7dff>
     f1a:	8929                	andi	a0,a0,10
     f1c:	42a0a623          	sw	a0,1068(ra)

00000f20 <inst_268>:
     f20:	0000b537          	lui	a0,0xb
     f24:	50350513          	addi	a0,a0,1283 # b503 <_end+0x7dff>
     f28:	8919                	andi	a0,a0,6
     f2a:	42a0a823          	sw	a0,1072(ra)

00000f2e <inst_269>:
     f2e:	0000b537          	lui	a0,0xb
     f32:	50350513          	addi	a0,a0,1283 # b503 <_end+0x7dff>
     f36:	9979                	andi	a0,a0,-2
     f38:	42a0aa23          	sw	a0,1076(ra)

00000f3c <inst_270>:
     f3c:	0000b537          	lui	a0,0xb
     f40:	50350513          	addi	a0,a0,1283 # b503 <_end+0x7dff>
     f44:	996d                	andi	a0,a0,-5
     f46:	42a0ac23          	sw	a0,1080(ra)

00000f4a <inst_271>:
     f4a:	0000b537          	lui	a0,0xb
     f4e:	50350513          	addi	a0,a0,1283 # b503 <_end+0x7dff>
     f52:	8909                	andi	a0,a0,2
     f54:	42a0ae23          	sw	a0,1084(ra)

00000f58 <inst_272>:
     f58:	0000b537          	lui	a0,0xb
     f5c:	50350513          	addi	a0,a0,1283 # b503 <_end+0x7dff>
     f60:	8911                	andi	a0,a0,4
     f62:	44a0a023          	sw	a0,1088(ra)

00000f66 <inst_273>:
     f66:	0000b537          	lui	a0,0xb
     f6a:	50350513          	addi	a0,a0,1283 # b503 <_end+0x7dff>
     f6e:	8925                	andi	a0,a0,9
     f70:	44a0a223          	sw	a0,1092(ra)

00000f74 <inst_274>:
     f74:	0000b537          	lui	a0,0xb
     f78:	50350513          	addi	a0,a0,1283 # b503 <_end+0x7dff>
     f7c:	8901                	andi	a0,a0,0
     f7e:	44a0a423          	sw	a0,1096(ra)

00000f82 <inst_275>:
     f82:	0000b537          	lui	a0,0xb
     f86:	50350513          	addi	a0,a0,1283 # b503 <_end+0x7dff>
     f8a:	892d                	andi	a0,a0,11
     f8c:	44a0a623          	sw	a0,1100(ra)

00000f90 <inst_276>:
     f90:	0000b537          	lui	a0,0xb
     f94:	50350513          	addi	a0,a0,1283 # b503 <_end+0x7dff>
     f98:	891d                	andi	a0,a0,7
     f9a:	44a0a823          	sw	a0,1104(ra)

00000f9e <inst_277>:
     f9e:	0000b537          	lui	a0,0xb
     fa2:	50350513          	addi	a0,a0,1283 # b503 <_end+0x7dff>
     fa6:	997d                	andi	a0,a0,-1
     fa8:	44a0aa23          	sw	a0,1108(ra)

00000fac <inst_278>:
     fac:	0000b537          	lui	a0,0xb
     fb0:	50350513          	addi	a0,a0,1283 # b503 <_end+0x7dff>
     fb4:	9971                	andi	a0,a0,-4
     fb6:	44a0ac23          	sw	a0,1112(ra)

00000fba <inst_279>:
     fba:	55555537          	lui	a0,0x55555
     fbe:	55650513          	addi	a0,a0,1366 # 55555556 <_end+0x55551e52>
     fc2:	890d                	andi	a0,a0,3
     fc4:	44a0ae23          	sw	a0,1116(ra)

00000fc8 <inst_280>:
     fc8:	55555537          	lui	a0,0x55555
     fcc:	55650513          	addi	a0,a0,1366 # 55555556 <_end+0x55551e52>
     fd0:	8915                	andi	a0,a0,5
     fd2:	46a0a023          	sw	a0,1120(ra)

00000fd6 <inst_281>:
     fd6:	55555537          	lui	a0,0x55555
     fda:	55650513          	addi	a0,a0,1366 # 55555556 <_end+0x55551e52>
     fde:	8929                	andi	a0,a0,10
     fe0:	46a0a223          	sw	a0,1124(ra)

00000fe4 <inst_282>:
     fe4:	55555537          	lui	a0,0x55555
     fe8:	55650513          	addi	a0,a0,1366 # 55555556 <_end+0x55551e52>
     fec:	8919                	andi	a0,a0,6
     fee:	46a0a423          	sw	a0,1128(ra)

00000ff2 <inst_283>:
     ff2:	55555537          	lui	a0,0x55555
     ff6:	55650513          	addi	a0,a0,1366 # 55555556 <_end+0x55551e52>
     ffa:	9979                	andi	a0,a0,-2
     ffc:	46a0a623          	sw	a0,1132(ra)

00001000 <inst_284>:
    1000:	55555537          	lui	a0,0x55555
    1004:	55650513          	addi	a0,a0,1366 # 55555556 <_end+0x55551e52>
    1008:	996d                	andi	a0,a0,-5
    100a:	46a0a823          	sw	a0,1136(ra)

0000100e <inst_285>:
    100e:	55555537          	lui	a0,0x55555
    1012:	55650513          	addi	a0,a0,1366 # 55555556 <_end+0x55551e52>
    1016:	8909                	andi	a0,a0,2
    1018:	46a0aa23          	sw	a0,1140(ra)

0000101c <inst_286>:
    101c:	55555537          	lui	a0,0x55555
    1020:	55650513          	addi	a0,a0,1366 # 55555556 <_end+0x55551e52>
    1024:	8911                	andi	a0,a0,4
    1026:	46a0ac23          	sw	a0,1144(ra)

0000102a <inst_287>:
    102a:	55555537          	lui	a0,0x55555
    102e:	55650513          	addi	a0,a0,1366 # 55555556 <_end+0x55551e52>
    1032:	8925                	andi	a0,a0,9
    1034:	46a0ae23          	sw	a0,1148(ra)

00001038 <inst_288>:
    1038:	55555537          	lui	a0,0x55555
    103c:	55650513          	addi	a0,a0,1366 # 55555556 <_end+0x55551e52>
    1040:	8901                	andi	a0,a0,0
    1042:	48a0a023          	sw	a0,1152(ra)

00001046 <inst_289>:
    1046:	55555537          	lui	a0,0x55555
    104a:	55650513          	addi	a0,a0,1366 # 55555556 <_end+0x55551e52>
    104e:	892d                	andi	a0,a0,11
    1050:	48a0a223          	sw	a0,1156(ra)

00001054 <inst_290>:
    1054:	55555537          	lui	a0,0x55555
    1058:	55650513          	addi	a0,a0,1366 # 55555556 <_end+0x55551e52>
    105c:	891d                	andi	a0,a0,7
    105e:	48a0a423          	sw	a0,1160(ra)

00001062 <inst_291>:
    1062:	55555537          	lui	a0,0x55555
    1066:	55650513          	addi	a0,a0,1366 # 55555556 <_end+0x55551e52>
    106a:	997d                	andi	a0,a0,-1
    106c:	48a0a623          	sw	a0,1164(ra)

00001070 <inst_292>:
    1070:	55555537          	lui	a0,0x55555
    1074:	55650513          	addi	a0,a0,1366 # 55555556 <_end+0x55551e52>
    1078:	9971                	andi	a0,a0,-4
    107a:	48a0a823          	sw	a0,1168(ra)

0000107e <inst_293>:
    107e:	aaaab537          	lui	a0,0xaaaab
    1082:	aab50513          	addi	a0,a0,-1365 # aaaaaaab <_end+0xaaaa73a7>
    1086:	890d                	andi	a0,a0,3
    1088:	48a0aa23          	sw	a0,1172(ra)

0000108c <inst_294>:
    108c:	aaaab537          	lui	a0,0xaaaab
    1090:	aab50513          	addi	a0,a0,-1365 # aaaaaaab <_end+0xaaaa73a7>
    1094:	8915                	andi	a0,a0,5
    1096:	48a0ac23          	sw	a0,1176(ra)

0000109a <inst_295>:
    109a:	aaaab537          	lui	a0,0xaaaab
    109e:	aab50513          	addi	a0,a0,-1365 # aaaaaaab <_end+0xaaaa73a7>
    10a2:	8929                	andi	a0,a0,10
    10a4:	48a0ae23          	sw	a0,1180(ra)

000010a8 <inst_296>:
    10a8:	aaaab537          	lui	a0,0xaaaab
    10ac:	aab50513          	addi	a0,a0,-1365 # aaaaaaab <_end+0xaaaa73a7>
    10b0:	8919                	andi	a0,a0,6
    10b2:	4aa0a023          	sw	a0,1184(ra)

000010b6 <inst_297>:
    10b6:	aaaab537          	lui	a0,0xaaaab
    10ba:	aab50513          	addi	a0,a0,-1365 # aaaaaaab <_end+0xaaaa73a7>
    10be:	9979                	andi	a0,a0,-2
    10c0:	4aa0a223          	sw	a0,1188(ra)

000010c4 <inst_298>:
    10c4:	aaaab537          	lui	a0,0xaaaab
    10c8:	aab50513          	addi	a0,a0,-1365 # aaaaaaab <_end+0xaaaa73a7>
    10cc:	996d                	andi	a0,a0,-5
    10ce:	4aa0a423          	sw	a0,1192(ra)

000010d2 <inst_299>:
    10d2:	aaaab537          	lui	a0,0xaaaab
    10d6:	aab50513          	addi	a0,a0,-1365 # aaaaaaab <_end+0xaaaa73a7>
    10da:	8909                	andi	a0,a0,2
    10dc:	4aa0a623          	sw	a0,1196(ra)

000010e0 <inst_300>:
    10e0:	aaaab537          	lui	a0,0xaaaab
    10e4:	aab50513          	addi	a0,a0,-1365 # aaaaaaab <_end+0xaaaa73a7>
    10e8:	8911                	andi	a0,a0,4
    10ea:	4aa0a823          	sw	a0,1200(ra)

000010ee <inst_301>:
    10ee:	aaaab537          	lui	a0,0xaaaab
    10f2:	aab50513          	addi	a0,a0,-1365 # aaaaaaab <_end+0xaaaa73a7>
    10f6:	8925                	andi	a0,a0,9
    10f8:	4aa0aa23          	sw	a0,1204(ra)

000010fc <inst_302>:
    10fc:	aaaab537          	lui	a0,0xaaaab
    1100:	aab50513          	addi	a0,a0,-1365 # aaaaaaab <_end+0xaaaa73a7>
    1104:	8901                	andi	a0,a0,0
    1106:	4aa0ac23          	sw	a0,1208(ra)

0000110a <inst_303>:
    110a:	aaaab537          	lui	a0,0xaaaab
    110e:	aab50513          	addi	a0,a0,-1365 # aaaaaaab <_end+0xaaaa73a7>
    1112:	892d                	andi	a0,a0,11
    1114:	4aa0ae23          	sw	a0,1212(ra)

00001118 <inst_304>:
    1118:	aaaab537          	lui	a0,0xaaaab
    111c:	aab50513          	addi	a0,a0,-1365 # aaaaaaab <_end+0xaaaa73a7>
    1120:	891d                	andi	a0,a0,7
    1122:	4ca0a023          	sw	a0,1216(ra)

00001126 <inst_305>:
    1126:	aaaab537          	lui	a0,0xaaaab
    112a:	aab50513          	addi	a0,a0,-1365 # aaaaaaab <_end+0xaaaa73a7>
    112e:	997d                	andi	a0,a0,-1
    1130:	4ca0a223          	sw	a0,1220(ra)

00001134 <inst_306>:
    1134:	aaaab537          	lui	a0,0xaaaab
    1138:	aab50513          	addi	a0,a0,-1365 # aaaaaaab <_end+0xaaaa73a7>
    113c:	9971                	andi	a0,a0,-4
    113e:	4ca0a423          	sw	a0,1224(ra)

00001142 <inst_307>:
    1142:	00600513          	li	a0,6
    1146:	890d                	andi	a0,a0,3
    1148:	4ca0a623          	sw	a0,1228(ra)

0000114c <inst_308>:
    114c:	00600513          	li	a0,6
    1150:	8915                	andi	a0,a0,5
    1152:	4ca0a823          	sw	a0,1232(ra)

00001156 <inst_309>:
    1156:	00600513          	li	a0,6
    115a:	8929                	andi	a0,a0,10
    115c:	4ca0aa23          	sw	a0,1236(ra)

00001160 <inst_310>:
    1160:	00600513          	li	a0,6
    1164:	8919                	andi	a0,a0,6
    1166:	4ca0ac23          	sw	a0,1240(ra)

0000116a <inst_311>:
    116a:	00600513          	li	a0,6
    116e:	9979                	andi	a0,a0,-2
    1170:	4ca0ae23          	sw	a0,1244(ra)

00001174 <inst_312>:
    1174:	00600513          	li	a0,6
    1178:	996d                	andi	a0,a0,-5
    117a:	4ea0a023          	sw	a0,1248(ra)

0000117e <inst_313>:
    117e:	ffff5537          	lui	a0,0xffff5
    1182:	afd50513          	addi	a0,a0,-1283 # ffff4afd <_end+0xffff13f9>
    1186:	997d                	andi	a0,a0,-1
    1188:	4ea0a223          	sw	a0,1252(ra)

0000118c <inst_314>:
    118c:	ffff5537          	lui	a0,0xffff5
    1190:	afd50513          	addi	a0,a0,-1283 # ffff4afd <_end+0xffff13f9>
    1194:	9971                	andi	a0,a0,-4
    1196:	4ea0a423          	sw	a0,1256(ra)

0000119a <inst_315>:
    119a:	0000b537          	lui	a0,0xb
    119e:	50550513          	addi	a0,a0,1285 # b505 <_end+0x7e01>
    11a2:	890d                	andi	a0,a0,3
    11a4:	4ea0a623          	sw	a0,1260(ra)

000011a8 <inst_316>:
    11a8:	0000b537          	lui	a0,0xb
    11ac:	50550513          	addi	a0,a0,1285 # b505 <_end+0x7e01>
    11b0:	8915                	andi	a0,a0,5
    11b2:	4ea0a823          	sw	a0,1264(ra)

000011b6 <inst_317>:
    11b6:	0000b537          	lui	a0,0xb
    11ba:	50550513          	addi	a0,a0,1285 # b505 <_end+0x7e01>
    11be:	8929                	andi	a0,a0,10
    11c0:	4ea0aa23          	sw	a0,1268(ra)

000011c4 <inst_318>:
    11c4:	0000b537          	lui	a0,0xb
    11c8:	50550513          	addi	a0,a0,1285 # b505 <_end+0x7e01>
    11cc:	8919                	andi	a0,a0,6
    11ce:	4ea0ac23          	sw	a0,1272(ra)

000011d2 <inst_319>:
    11d2:	0000b537          	lui	a0,0xb
    11d6:	50550513          	addi	a0,a0,1285 # b505 <_end+0x7e01>
    11da:	9979                	andi	a0,a0,-2
    11dc:	4ea0ae23          	sw	a0,1276(ra)

000011e0 <inst_320>:
    11e0:	0000b537          	lui	a0,0xb
    11e4:	50550513          	addi	a0,a0,1285 # b505 <_end+0x7e01>
    11e8:	996d                	andi	a0,a0,-5
    11ea:	50a0a023          	sw	a0,1280(ra)

000011ee <inst_321>:
    11ee:	0000b537          	lui	a0,0xb
    11f2:	50550513          	addi	a0,a0,1285 # b505 <_end+0x7e01>
    11f6:	8909                	andi	a0,a0,2
    11f8:	50a0a223          	sw	a0,1284(ra)

000011fc <inst_322>:
    11fc:	0000b537          	lui	a0,0xb
    1200:	50550513          	addi	a0,a0,1285 # b505 <_end+0x7e01>
    1204:	8911                	andi	a0,a0,4
    1206:	50a0a423          	sw	a0,1288(ra)

0000120a <inst_323>:
    120a:	0000b537          	lui	a0,0xb
    120e:	50550513          	addi	a0,a0,1285 # b505 <_end+0x7e01>
    1212:	8925                	andi	a0,a0,9
    1214:	50a0a623          	sw	a0,1292(ra)

00001218 <inst_324>:
    1218:	0000b537          	lui	a0,0xb
    121c:	50550513          	addi	a0,a0,1285 # b505 <_end+0x7e01>
    1220:	8901                	andi	a0,a0,0
    1222:	50a0a823          	sw	a0,1296(ra)

00001226 <inst_325>:
    1226:	0000b537          	lui	a0,0xb
    122a:	50550513          	addi	a0,a0,1285 # b505 <_end+0x7e01>
    122e:	892d                	andi	a0,a0,11
    1230:	50a0aa23          	sw	a0,1300(ra)

00001234 <inst_326>:
    1234:	0000b537          	lui	a0,0xb
    1238:	50550513          	addi	a0,a0,1285 # b505 <_end+0x7e01>
    123c:	891d                	andi	a0,a0,7
    123e:	50a0ac23          	sw	a0,1304(ra)

00001242 <inst_327>:
    1242:	0000b537          	lui	a0,0xb
    1246:	50550513          	addi	a0,a0,1285 # b505 <_end+0x7e01>
    124a:	997d                	andi	a0,a0,-1
    124c:	50a0ae23          	sw	a0,1308(ra)

00001250 <inst_328>:
    1250:	0000b537          	lui	a0,0xb
    1254:	50550513          	addi	a0,a0,1285 # b505 <_end+0x7e01>
    1258:	9971                	andi	a0,a0,-4
    125a:	52a0a023          	sw	a0,1312(ra)

0000125e <inst_329>:
    125e:	00600513          	li	a0,6
    1262:	8909                	andi	a0,a0,2
    1264:	52a0a223          	sw	a0,1316(ra)

00001268 <inst_330>:
    1268:	00600513          	li	a0,6
    126c:	8911                	andi	a0,a0,4
    126e:	52a0a423          	sw	a0,1320(ra)

00001272 <inst_331>:
    1272:	00600513          	li	a0,6
    1276:	8925                	andi	a0,a0,9
    1278:	52a0a623          	sw	a0,1324(ra)

0000127c <inst_332>:
    127c:	00600513          	li	a0,6
    1280:	8901                	andi	a0,a0,0
    1282:	52a0a823          	sw	a0,1328(ra)

00001286 <inst_333>:
    1286:	00600513          	li	a0,6
    128a:	892d                	andi	a0,a0,11
    128c:	52a0aa23          	sw	a0,1332(ra)

00001290 <inst_334>:
    1290:	00600513          	li	a0,6
    1294:	891d                	andi	a0,a0,7
    1296:	52a0ac23          	sw	a0,1336(ra)

0000129a <inst_335>:
    129a:	00600513          	li	a0,6
    129e:	997d                	andi	a0,a0,-1
    12a0:	52a0ae23          	sw	a0,1340(ra)

000012a4 <inst_336>:
    12a4:	00600513          	li	a0,6
    12a8:	9971                	andi	a0,a0,-4
    12aa:	54a0a023          	sw	a0,1344(ra)

000012ae <inst_337>:
    12ae:	33333537          	lui	a0,0x33333
    12b2:	33450513          	addi	a0,a0,820 # 33333334 <_end+0x3332fc30>
    12b6:	890d                	andi	a0,a0,3
    12b8:	54a0a223          	sw	a0,1348(ra)

000012bc <inst_338>:
    12bc:	33333537          	lui	a0,0x33333
    12c0:	33450513          	addi	a0,a0,820 # 33333334 <_end+0x3332fc30>
    12c4:	8915                	andi	a0,a0,5
    12c6:	54a0a423          	sw	a0,1352(ra)

000012ca <inst_339>:
    12ca:	33333537          	lui	a0,0x33333
    12ce:	33450513          	addi	a0,a0,820 # 33333334 <_end+0x3332fc30>
    12d2:	8929                	andi	a0,a0,10
    12d4:	54a0a623          	sw	a0,1356(ra)

000012d8 <inst_340>:
    12d8:	33333537          	lui	a0,0x33333
    12dc:	33450513          	addi	a0,a0,820 # 33333334 <_end+0x3332fc30>
    12e0:	8919                	andi	a0,a0,6
    12e2:	54a0a823          	sw	a0,1360(ra)

000012e6 <inst_341>:
    12e6:	33333537          	lui	a0,0x33333
    12ea:	33450513          	addi	a0,a0,820 # 33333334 <_end+0x3332fc30>
    12ee:	9979                	andi	a0,a0,-2
    12f0:	54a0aa23          	sw	a0,1364(ra)

000012f4 <inst_342>:
    12f4:	33333537          	lui	a0,0x33333
    12f8:	33450513          	addi	a0,a0,820 # 33333334 <_end+0x3332fc30>
    12fc:	996d                	andi	a0,a0,-5
    12fe:	54a0ac23          	sw	a0,1368(ra)

00001302 <inst_343>:
    1302:	33333537          	lui	a0,0x33333
    1306:	33450513          	addi	a0,a0,820 # 33333334 <_end+0x3332fc30>
    130a:	8909                	andi	a0,a0,2
    130c:	54a0ae23          	sw	a0,1372(ra)

00001310 <inst_344>:
    1310:	33333537          	lui	a0,0x33333
    1314:	33450513          	addi	a0,a0,820 # 33333334 <_end+0x3332fc30>
    1318:	8911                	andi	a0,a0,4
    131a:	56a0a023          	sw	a0,1376(ra)

0000131e <inst_345>:
    131e:	33333537          	lui	a0,0x33333
    1322:	33450513          	addi	a0,a0,820 # 33333334 <_end+0x3332fc30>
    1326:	8925                	andi	a0,a0,9
    1328:	56a0a223          	sw	a0,1380(ra)

0000132c <inst_346>:
    132c:	33333537          	lui	a0,0x33333
    1330:	33450513          	addi	a0,a0,820 # 33333334 <_end+0x3332fc30>
    1334:	8901                	andi	a0,a0,0
    1336:	56a0a423          	sw	a0,1384(ra)

0000133a <inst_347>:
    133a:	33333537          	lui	a0,0x33333
    133e:	33450513          	addi	a0,a0,820 # 33333334 <_end+0x3332fc30>
    1342:	892d                	andi	a0,a0,11
    1344:	56a0a623          	sw	a0,1388(ra)

00001348 <inst_348>:
    1348:	33333537          	lui	a0,0x33333
    134c:	33450513          	addi	a0,a0,820 # 33333334 <_end+0x3332fc30>
    1350:	891d                	andi	a0,a0,7
    1352:	56a0a823          	sw	a0,1392(ra)

00001356 <inst_349>:
    1356:	33333537          	lui	a0,0x33333
    135a:	33450513          	addi	a0,a0,820 # 33333334 <_end+0x3332fc30>
    135e:	997d                	andi	a0,a0,-1
    1360:	56a0aa23          	sw	a0,1396(ra)

00001364 <inst_350>:
    1364:	33333537          	lui	a0,0x33333
    1368:	33450513          	addi	a0,a0,820 # 33333334 <_end+0x3332fc30>
    136c:	9971                	andi	a0,a0,-4
    136e:	56a0ac23          	sw	a0,1400(ra)

00001372 <inst_351>:
    1372:	66666537          	lui	a0,0x66666
    1376:	66750513          	addi	a0,a0,1639 # 66666667 <_end+0x66662f63>
    137a:	890d                	andi	a0,a0,3
    137c:	56a0ae23          	sw	a0,1404(ra)

00001380 <inst_352>:
    1380:	66666537          	lui	a0,0x66666
    1384:	66750513          	addi	a0,a0,1639 # 66666667 <_end+0x66662f63>
    1388:	8915                	andi	a0,a0,5
    138a:	58a0a023          	sw	a0,1408(ra)

0000138e <inst_353>:
    138e:	66666537          	lui	a0,0x66666
    1392:	66750513          	addi	a0,a0,1639 # 66666667 <_end+0x66662f63>
    1396:	8929                	andi	a0,a0,10
    1398:	58a0a223          	sw	a0,1412(ra)

0000139c <inst_354>:
    139c:	66666537          	lui	a0,0x66666
    13a0:	66750513          	addi	a0,a0,1639 # 66666667 <_end+0x66662f63>
    13a4:	8919                	andi	a0,a0,6
    13a6:	58a0a423          	sw	a0,1416(ra)

000013aa <inst_355>:
    13aa:	66666537          	lui	a0,0x66666
    13ae:	66750513          	addi	a0,a0,1639 # 66666667 <_end+0x66662f63>
    13b2:	9979                	andi	a0,a0,-2
    13b4:	58a0a623          	sw	a0,1420(ra)

000013b8 <inst_356>:
    13b8:	66666537          	lui	a0,0x66666
    13bc:	66750513          	addi	a0,a0,1639 # 66666667 <_end+0x66662f63>
    13c0:	8909                	andi	a0,a0,2
    13c2:	58a0a823          	sw	a0,1424(ra)

000013c6 <inst_357>:
    13c6:	66666537          	lui	a0,0x66666
    13ca:	66750513          	addi	a0,a0,1639 # 66666667 <_end+0x66662f63>
    13ce:	8911                	andi	a0,a0,4
    13d0:	58a0aa23          	sw	a0,1428(ra)

000013d4 <inst_358>:
    13d4:	66666537          	lui	a0,0x66666
    13d8:	66750513          	addi	a0,a0,1639 # 66666667 <_end+0x66662f63>
    13dc:	8925                	andi	a0,a0,9
    13de:	58a0ac23          	sw	a0,1432(ra)

000013e2 <inst_359>:
    13e2:	66666537          	lui	a0,0x66666
    13e6:	66750513          	addi	a0,a0,1639 # 66666667 <_end+0x66662f63>
    13ea:	8901                	andi	a0,a0,0
    13ec:	58a0ae23          	sw	a0,1436(ra)

000013f0 <inst_360>:
    13f0:	66666537          	lui	a0,0x66666
    13f4:	66750513          	addi	a0,a0,1639 # 66666667 <_end+0x66662f63>
    13f8:	892d                	andi	a0,a0,11
    13fa:	5aa0a023          	sw	a0,1440(ra)

000013fe <inst_361>:
    13fe:	66666537          	lui	a0,0x66666
    1402:	66750513          	addi	a0,a0,1639 # 66666667 <_end+0x66662f63>
    1406:	891d                	andi	a0,a0,7
    1408:	5aa0a223          	sw	a0,1444(ra)

0000140c <inst_362>:
    140c:	66666537          	lui	a0,0x66666
    1410:	66750513          	addi	a0,a0,1639 # 66666667 <_end+0x66662f63>
    1414:	997d                	andi	a0,a0,-1
    1416:	5aa0a423          	sw	a0,1448(ra)

0000141a <inst_363>:
    141a:	66666537          	lui	a0,0x66666
    141e:	66750513          	addi	a0,a0,1639 # 66666667 <_end+0x66662f63>
    1422:	9971                	andi	a0,a0,-4
    1424:	5aa0a623          	sw	a0,1452(ra)

00001428 <inst_364>:
    1428:	ffff5537          	lui	a0,0xffff5
    142c:	afd50513          	addi	a0,a0,-1283 # ffff4afd <_end+0xffff13f9>
    1430:	890d                	andi	a0,a0,3
    1432:	5aa0a823          	sw	a0,1456(ra)

00001436 <inst_365>:
    1436:	ffff5537          	lui	a0,0xffff5
    143a:	afd50513          	addi	a0,a0,-1283 # ffff4afd <_end+0xffff13f9>
    143e:	8915                	andi	a0,a0,5
    1440:	5aa0aa23          	sw	a0,1460(ra)

00001444 <inst_366>:
    1444:	ffff5537          	lui	a0,0xffff5
    1448:	afd50513          	addi	a0,a0,-1283 # ffff4afd <_end+0xffff13f9>
    144c:	8929                	andi	a0,a0,10
    144e:	5aa0ac23          	sw	a0,1464(ra)

00001452 <inst_367>:
    1452:	ffff5537          	lui	a0,0xffff5
    1456:	afd50513          	addi	a0,a0,-1283 # ffff4afd <_end+0xffff13f9>
    145a:	8919                	andi	a0,a0,6
    145c:	5aa0ae23          	sw	a0,1468(ra)

00001460 <inst_368>:
    1460:	ffff5537          	lui	a0,0xffff5
    1464:	afd50513          	addi	a0,a0,-1283 # ffff4afd <_end+0xffff13f9>
    1468:	9979                	andi	a0,a0,-2
    146a:	5ca0a023          	sw	a0,1472(ra)

0000146e <inst_369>:
    146e:	ffff5537          	lui	a0,0xffff5
    1472:	afd50513          	addi	a0,a0,-1283 # ffff4afd <_end+0xffff13f9>
    1476:	996d                	andi	a0,a0,-5
    1478:	5ca0a223          	sw	a0,1476(ra)

0000147c <inst_370>:
    147c:	ffff5537          	lui	a0,0xffff5
    1480:	afd50513          	addi	a0,a0,-1283 # ffff4afd <_end+0xffff13f9>
    1484:	8909                	andi	a0,a0,2
    1486:	5ca0a423          	sw	a0,1480(ra)

0000148a <inst_371>:
    148a:	ffff5537          	lui	a0,0xffff5
    148e:	afd50513          	addi	a0,a0,-1283 # ffff4afd <_end+0xffff13f9>
    1492:	8911                	andi	a0,a0,4
    1494:	5ca0a623          	sw	a0,1484(ra)

00001498 <inst_372>:
    1498:	ffff5537          	lui	a0,0xffff5
    149c:	afd50513          	addi	a0,a0,-1283 # ffff4afd <_end+0xffff13f9>
    14a0:	8925                	andi	a0,a0,9
    14a2:	5ca0a823          	sw	a0,1488(ra)

000014a6 <inst_373>:
    14a6:	ffff5537          	lui	a0,0xffff5
    14aa:	afd50513          	addi	a0,a0,-1283 # ffff4afd <_end+0xffff13f9>
    14ae:	8901                	andi	a0,a0,0
    14b0:	5ca0aa23          	sw	a0,1492(ra)

000014b4 <inst_374>:
    14b4:	ffff5537          	lui	a0,0xffff5
    14b8:	afd50513          	addi	a0,a0,-1283 # ffff4afd <_end+0xffff13f9>
    14bc:	892d                	andi	a0,a0,11
    14be:	5ca0ac23          	sw	a0,1496(ra)

000014c2 <inst_375>:
    14c2:	ffff5537          	lui	a0,0xffff5
    14c6:	afd50513          	addi	a0,a0,-1283 # ffff4afd <_end+0xffff13f9>
    14ca:	891d                	andi	a0,a0,7
    14cc:	5ca0ae23          	sw	a0,1500(ra)

000014d0 <rvtest_code_end>:
    14d0:	00002297          	auipc	t0,0x2
    14d4:	b4028293          	addi	t0,t0,-1216 # 3010 <begin_signature>
    14d8:	00020337          	lui	t1,0x20
    14dc:	0311                	addi	t1,t1,4
    14de:	00532023          	sw	t0,0(t1) # 20000 <_end+0x1c8fc>
    14e2:	00002297          	auipc	t0,0x2
    14e6:	10e28293          	addi	t0,t0,270 # 35f0 <end_signature>
    14ea:	00020337          	lui	t1,0x20
    14ee:	0321                	addi	t1,t1,8
    14f0:	00532023          	sw	t0,0(t1) # 20000 <_end+0x1c8fc>
    14f4:	4285                	li	t0,1
    14f6:	00020337          	lui	t1,0x20
    14fa:	00532023          	sw	t0,0(t1) # 20000 <_end+0x1c8fc>
    14fe:	0ff0000f          	fence
    1502:	4185                	li	gp,1
    1504:	00000073          	ecall
	...

Disassembly of section .tohost:

00002000 <tohost>:
	...

00002100 <fromhost>:
	...
