
/home/luanle/ibex/riscv-compliance/work/rv32i_m/C/csub-01.elf:     file format elf32-littleriscv


Disassembly of section .text.trap:

00000000 <_trap_start>:
   0:	a829                	j	1a <_trap_exception>
   2:	a81d                	j	38 <_int_exc>
   4:	a815                	j	38 <_int_exc>
   6:	a80d                	j	38 <_int_exc>
   8:	a805                	j	38 <_int_exc>
   a:	a03d                	j	38 <_int_exc>
   c:	a035                	j	38 <_int_exc>
   e:	a02d                	j	38 <_int_exc>
  10:	a025                	j	38 <_int_exc>
  12:	a01d                	j	38 <_int_exc>
  14:	a015                	j	38 <_int_exc>
  16:	a00d                	j	38 <_int_exc>
  18:	a005                	j	38 <_int_exc>

0000001a <_trap_exception>:
  1a:	34202573          	csrr	a0,mcause
  1e:	45ad                	li	a1,11
  20:	00b50763          	beq	a0,a1,2e <_trap_exception+0x14>
  24:	00004597          	auipc	a1,0x4
  28:	fec58593          	addi	a1,a1,-20 # 4010 <begin_signature>
  2c:	c188                	sw	a0,0(a1)
  2e:	00000517          	auipc	a0,0x0
  32:	08450513          	addi	a0,a0,132 # b2 <write_tohost>
  36:	8502                	jr	a0

00000038 <_int_exc>:
  38:	00000517          	auipc	a0,0x0
  3c:	07a50513          	addi	a0,a0,122 # b2 <write_tohost>
  40:	8502                	jr	a0

Disassembly of section .text.init:

00000080 <_start>:
      80:	a835                	j	bc <reset_vector>
      82:	0001                	nop

00000084 <trap_vector>:
      84:	34202f73          	csrr	t5,mcause
      88:	4fa1                	li	t6,8
      8a:	03ff0463          	beq	t5,t6,b2 <write_tohost>
      8e:	4fa5                	li	t6,9
      90:	03ff0163          	beq	t5,t6,b2 <write_tohost>
      94:	4fad                	li	t6,11
      96:	01ff0e63          	beq	t5,t6,b2 <write_tohost>
      9a:	00000f13          	li	t5,0
      9e:	000f0363          	beqz	t5,a4 <trap_vector+0x20>
      a2:	8f02                	jr	t5
      a4:	34202f73          	csrr	t5,mcause
      a8:	000f5363          	bgez	t5,ae <handle_exception>
      ac:	a009                	j	ae <handle_exception>

000000ae <handle_exception>:
      ae:	5391e193          	ori	gp,gp,1337

000000b2 <write_tohost>:
      b2:	00003f17          	auipc	t5,0x3
      b6:	f43f2723          	sw	gp,-178(t5) # 3000 <tohost>
      ba:	bfe5                	j	b2 <write_tohost>

000000bc <reset_vector>:
      bc:	f1402573          	csrr	a0,mhartid
      c0:	e101                	bnez	a0,c0 <reset_vector+0x4>
      c2:	4181                	li	gp,0
      c4:	00000297          	auipc	t0,0x0
      c8:	fc028293          	addi	t0,t0,-64 # 84 <trap_vector>
      cc:	30529073          	csrw	mtvec,t0
      d0:	4505                	li	a0,1
      d2:	057e                	slli	a0,a0,0x1f
      d4:	00054763          	bltz	a0,e2 <reset_vector+0x26>
      d8:	0ff0000f          	fence
      dc:	4185                	li	gp,1
      de:	00000073          	ecall
      e2:	00000293          	li	t0,0
      e6:	00028d63          	beqz	t0,100 <reset_vector+0x44>
      ea:	10529073          	csrw	stvec,t0
      ee:	62ad                	lui	t0,0xb
      f0:	10928293          	addi	t0,t0,265 # b109 <_end+0x6605>
      f4:	30229073          	csrw	medeleg,t0
      f8:	30202373          	csrr	t1,medeleg
      fc:	fa6299e3          	bne	t0,t1,ae <handle_exception>
     100:	30005073          	csrwi	mstatus,0
     104:	6509                	lui	a0,0x2
     106:	80050513          	addi	a0,a0,-2048 # 1800 <inst_297+0xe>
     10a:	30052073          	csrs	mstatus,a0
     10e:	00000297          	auipc	t0,0x0
     112:	01428293          	addi	t0,t0,20 # 122 <begin_testcode>
     116:	34129073          	csrw	mepc,t0
     11a:	f1402573          	csrr	a0,mhartid
     11e:	30200073          	mret

00000122 <begin_testcode>:
     122:	0001                	nop
     124:	00000013          	nop
     128:	00000013          	nop
     12c:	00000013          	nop
     130:	00000013          	nop
     134:	00000013          	nop
     138:	00000013          	nop
     13c:	00000013          	nop

00000140 <rvtest_init>:
     140:	feedc0b7          	lui	ra,0xfeedc
     144:	ead08093          	addi	ra,ra,-339 # feedbead <_end+0xfeed73a9>
     148:	ff76e137          	lui	sp,0xff76e
     14c:	f5610113          	addi	sp,sp,-170 # ff76df56 <_end+0xff769452>
     150:	7fbb71b7          	lui	gp,0x7fbb7
     154:	fab18193          	addi	gp,gp,-85 # 7fbb6fab <_end+0x7fbb24a7>
     158:	bfddb237          	lui	tp,0xbfddb
     15c:	7d520213          	addi	tp,tp,2005 # bfddb7d5 <_end+0xbfdd6cd1>
     160:	00000297          	auipc	t0,0x0
     164:	0d828293          	addi	t0,t0,216 # 238 <rvtest_code_begin>
     168:	00004317          	auipc	t1,0x4
     16c:	e9830313          	addi	t1,t1,-360 # 4000 <rvtest_data_begin>
     170:	b7fbb3b7          	lui	t2,0xb7fbb
     174:	6fa38393          	addi	t2,t2,1786 # b7fbb6fa <_end+0xb7fb6bf6>
     178:	5bfde437          	lui	s0,0x5bfde
     17c:	b7d40413          	addi	s0,s0,-1155 # 5bfddb7d <_end+0x5bfd9079>
     180:	adfef4b7          	lui	s1,0xadfef
     184:	dbe48493          	addi	s1,s1,-578 # adfeedbe <_end+0xadfea2ba>
     188:	56ff7537          	lui	a0,0x56ff7
     18c:	6df50513          	addi	a0,a0,1759 # 56ff76df <_end+0x56ff2bdb>
     190:	ab7fc5b7          	lui	a1,0xab7fc
     194:	b6f58593          	addi	a1,a1,-1169 # ab7fbb6f <_end+0xab7f706b>
     198:	d5bfe637          	lui	a2,0xd5bfe
     19c:	db760613          	addi	a2,a2,-585 # d5bfddb7 <_end+0xd5bf92b3>
     1a0:	eadff6b7          	lui	a3,0xeadff
     1a4:	edb68693          	addi	a3,a3,-293 # eadfeedb <_end+0xeadfa3d7>
     1a8:	f56ff737          	lui	a4,0xf56ff
     1ac:	76d70713          	addi	a4,a4,1901 # f56ff76d <_end+0xf56fac69>
     1b0:	fab807b7          	lui	a5,0xfab80
     1b4:	bb678793          	addi	a5,a5,-1098 # fab7fbb6 <_end+0xfab7b0b2>
     1b8:	7d5c0837          	lui	a6,0x7d5c0
     1bc:	ddb80813          	addi	a6,a6,-549 # 7d5bfddb <_end+0x7d5bb2d7>
     1c0:	beae08b7          	lui	a7,0xbeae0
     1c4:	eed88893          	addi	a7,a7,-275 # beadfeed <_end+0xbeadb3e9>
     1c8:	df570937          	lui	s2,0xdf570
     1cc:	f7690913          	addi	s2,s2,-138 # df56ff76 <_end+0xdf56b472>
     1d0:	6fab89b7          	lui	s3,0x6fab8
     1d4:	fbb98993          	addi	s3,s3,-69 # 6fab7fbb <_end+0x6fab34b7>
     1d8:	b7d5ca37          	lui	s4,0xb7d5c
     1dc:	fdda0a13          	addi	s4,s4,-35 # b7d5bfdd <_end+0xb7d574d9>
     1e0:	dbeaeab7          	lui	s5,0xdbeae
     1e4:	feea8a93          	addi	s5,s5,-18 # dbeadfee <_end+0xdbea94ea>
     1e8:	6df57b37          	lui	s6,0x6df57
     1ec:	ff7b0b13          	addi	s6,s6,-9 # 6df56ff7 <_end+0x6df524f3>
     1f0:	b6fabbb7          	lui	s7,0xb6fab
     1f4:	7fbb8b93          	addi	s7,s7,2043 # b6fab7fb <_end+0xb6fa6cf7>
     1f8:	db7d6c37          	lui	s8,0xdb7d6
     1fc:	bfdc0c13          	addi	s8,s8,-1027 # db7d5bfd <_end+0xdb7d10f9>
     200:	edbebcb7          	lui	s9,0xedbeb
     204:	dfec8c93          	addi	s9,s9,-514 # edbeadfe <_end+0xedbe62fa>
     208:	76df5d37          	lui	s10,0x76df5
     20c:	6ffd0d13          	addi	s10,s10,1791 # 76df56ff <_end+0x76df0bfb>
     210:	bb6fbdb7          	lui	s11,0xbb6fb
     214:	b7fd8d93          	addi	s11,s11,-1153 # bb6fab7f <_end+0xbb6f607b>
     218:	ddb7de37          	lui	t3,0xddb7d
     21c:	5bfe0e13          	addi	t3,t3,1471 # ddb7d5bf <_end+0xddb78abb>
     220:	eedbfeb7          	lui	t4,0xeedbf
     224:	adfe8e93          	addi	t4,t4,-1313 # eedbeadf <_end+0xeedb9fdb>
     228:	f76dff37          	lui	t5,0xf76df
     22c:	56ff0f13          	addi	t5,t5,1391 # f76df56f <_end+0xf76daa6b>
     230:	fbb70fb7          	lui	t6,0xfbb70
     234:	ab7f8f93          	addi	t6,t6,-1353 # fbb6fab7 <_end+0xfbb6afb3>

00000238 <rvtest_code_begin>:
     238:	00004097          	auipc	ra,0x4
     23c:	dd808093          	addi	ra,ra,-552 # 4010 <begin_signature>

00000240 <inst_0>:
     240:	80000737          	lui	a4,0x80000
     244:	fffff4b7          	lui	s1,0xfffff
     248:	fff48493          	addi	s1,s1,-1 # ffffefff <_end+0xffffa4fb>
     24c:	8c99                	sub	s1,s1,a4
     24e:	0090a023          	sw	s1,0(ra)

00000252 <inst_1>:
     252:	00040637          	lui	a2,0x40
     256:	00040637          	lui	a2,0x40
     25a:	8e11                	sub	a2,a2,a2
     25c:	00c0a223          	sw	a2,4(ra)

00000260 <inst_2>:
     260:	800006b7          	lui	a3,0x80000
     264:	fff68693          	addi	a3,a3,-1 # 7fffffff <_end+0x7fffb4fb>
     268:	00000713          	li	a4,0
     26c:	8f15                	sub	a4,a4,a3
     26e:	00e0a423          	sw	a4,8(ra)

00000272 <inst_3>:
     272:	00100493          	li	s1,1
     276:	00800513          	li	a0,8
     27a:	8d05                	sub	a0,a0,s1
     27c:	00a0a623          	sw	a0,12(ra)

00000280 <inst_4>:
     280:	00004437          	lui	s0,0x4
     284:	800005b7          	lui	a1,0x80000
     288:	8d81                	sub	a1,a1,s0
     28a:	00b0a823          	sw	a1,16(ra)

0000028e <inst_5>:
     28e:	00004537          	lui	a0,0x4
     292:	800007b7          	lui	a5,0x80000
     296:	fff78793          	addi	a5,a5,-1 # 7fffffff <_end+0x7fffb4fb>
     29a:	8f89                	sub	a5,a5,a0
     29c:	00f0aa23          	sw	a5,20(ra)

000002a0 <inst_6>:
     2a0:	f80007b7          	lui	a5,0xf8000
     2a4:	fff78793          	addi	a5,a5,-1 # f7ffffff <_end+0xf7ffb4fb>
     2a8:	00100693          	li	a3,1
     2ac:	8e9d                	sub	a3,a3,a5
     2ae:	00d0ac23          	sw	a3,24(ra)

000002b2 <inst_7>:
     2b2:	00200593          	li	a1,2
     2b6:	ffa00413          	li	s0,-6
     2ba:	8c0d                	sub	s0,s0,a1
     2bc:	0080ae23          	sw	s0,28(ra)

000002c0 <inst_8>:
     2c0:	00400593          	li	a1,4
     2c4:	00400513          	li	a0,4
     2c8:	8d0d                	sub	a0,a0,a1
     2ca:	02a0a023          	sw	a0,32(ra)

000002ce <inst_9>:
     2ce:	00800593          	li	a1,8
     2d2:	00001537          	lui	a0,0x1
     2d6:	80050513          	addi	a0,a0,-2048 # 800 <inst_88+0xc>
     2da:	8d0d                	sub	a0,a0,a1
     2dc:	02a0a223          	sw	a0,36(ra)

000002e0 <inst_10>:
     2e0:	01000593          	li	a1,16
     2e4:	00100537          	lui	a0,0x100
     2e8:	8d0d                	sub	a0,a0,a1
     2ea:	02a0a423          	sw	a0,40(ra)

000002ee <inst_11>:
     2ee:	02000593          	li	a1,32
     2f2:	fffff537          	lui	a0,0xfffff
     2f6:	fff50513          	addi	a0,a0,-1 # ffffefff <_end+0xffffa4fb>
     2fa:	8d0d                	sub	a0,a0,a1
     2fc:	02a0a623          	sw	a0,44(ra)

00000300 <inst_12>:
     300:	04000593          	li	a1,64
     304:	0000b537          	lui	a0,0xb
     308:	50350513          	addi	a0,a0,1283 # b503 <_end+0x69ff>
     30c:	8d0d                	sub	a0,a0,a1
     30e:	02a0a823          	sw	a0,48(ra)

00000312 <inst_13>:
     312:	08000593          	li	a1,128
     316:	33333537          	lui	a0,0x33333
     31a:	33250513          	addi	a0,a0,818 # 33333332 <_end+0x3332e82e>
     31e:	8d0d                	sub	a0,a0,a1
     320:	02a0aa23          	sw	a0,52(ra)

00000324 <inst_14>:
     324:	10000593          	li	a1,256
     328:	00700513          	li	a0,7
     32c:	8d0d                	sub	a0,a0,a1
     32e:	02a0ac23          	sw	a0,56(ra)

00000332 <inst_15>:
     332:	20000593          	li	a1,512
     336:	40000537          	lui	a0,0x40000
     33a:	8d0d                	sub	a0,a0,a1
     33c:	02a0ae23          	sw	a0,60(ra)

00000340 <inst_16>:
     340:	40000593          	li	a1,1024
     344:	eff00513          	li	a0,-257
     348:	8d0d                	sub	a0,a0,a1
     34a:	04a0a023          	sw	a0,64(ra)

0000034e <inst_17>:
     34e:	000015b7          	lui	a1,0x1
     352:	80058593          	addi	a1,a1,-2048 # 800 <inst_88+0xc>
     356:	00700513          	li	a0,7
     35a:	8d0d                	sub	a0,a0,a1
     35c:	04a0a223          	sw	a0,68(ra)

00000360 <inst_18>:
     360:	000015b7          	lui	a1,0x1
     364:	00500513          	li	a0,5
     368:	8d0d                	sub	a0,a0,a1
     36a:	04a0a423          	sw	a0,72(ra)

0000036e <inst_19>:
     36e:	000025b7          	lui	a1,0x2
     372:	33333537          	lui	a0,0x33333
     376:	33450513          	addi	a0,a0,820 # 33333334 <_end+0x3332e830>
     37a:	8d0d                	sub	a0,a0,a1
     37c:	04a0a623          	sw	a0,76(ra)

00000380 <inst_20>:
     380:	000085b7          	lui	a1,0x8
     384:	02000513          	li	a0,32
     388:	8d0d                	sub	a0,a0,a1
     38a:	04a0a823          	sw	a0,80(ra)

0000038e <inst_21>:
     38e:	000105b7          	lui	a1,0x10
     392:	ff000537          	lui	a0,0xff000
     396:	fff50513          	addi	a0,a0,-1 # feffffff <_end+0xfeffb4fb>
     39a:	8d0d                	sub	a0,a0,a1
     39c:	04a0aa23          	sw	a0,84(ra)

000003a0 <inst_22>:
     3a0:	000205b7          	lui	a1,0x20
     3a4:	fbf00513          	li	a0,-65
     3a8:	8d0d                	sub	a0,a0,a1
     3aa:	04a0ac23          	sw	a0,88(ra)

000003ae <inst_23>:
     3ae:	000405b7          	lui	a1,0x40
     3b2:	bff00513          	li	a0,-1025
     3b6:	8d0d                	sub	a0,a0,a1
     3b8:	04a0ae23          	sw	a0,92(ra)

000003bc <inst_24>:
     3bc:	000805b7          	lui	a1,0x80
     3c0:	00500513          	li	a0,5
     3c4:	8d0d                	sub	a0,a0,a1
     3c6:	06a0a023          	sw	a0,96(ra)

000003ca <inst_25>:
     3ca:	001005b7          	lui	a1,0x100
     3ce:	c0000537          	lui	a0,0xc0000
     3d2:	8d0d                	sub	a0,a0,a1
     3d4:	06a0a223          	sw	a0,100(ra)

000003d8 <inst_26>:
     3d8:	002005b7          	lui	a1,0x200
     3dc:	00000513          	li	a0,0
     3e0:	8d0d                	sub	a0,a0,a1
     3e2:	06a0a423          	sw	a0,104(ra)

000003e6 <inst_27>:
     3e6:	004005b7          	lui	a1,0x400
     3ea:	10000513          	li	a0,256
     3ee:	8d0d                	sub	a0,a0,a1
     3f0:	06a0a623          	sw	a0,108(ra)

000003f4 <inst_28>:
     3f4:	008005b7          	lui	a1,0x800
     3f8:	ffd00513          	li	a0,-3
     3fc:	8d0d                	sub	a0,a0,a1
     3fe:	06a0a823          	sw	a0,112(ra)

00000402 <inst_29>:
     402:	010005b7          	lui	a1,0x1000
     406:	00200513          	li	a0,2
     40a:	8d0d                	sub	a0,a0,a1
     40c:	06a0aa23          	sw	a0,116(ra)

00000410 <inst_30>:
     410:	020005b7          	lui	a1,0x2000
     414:	fef00513          	li	a0,-17
     418:	8d0d                	sub	a0,a0,a1
     41a:	06a0ac23          	sw	a0,120(ra)

0000041e <inst_31>:
     41e:	040005b7          	lui	a1,0x4000
     422:	10000537          	lui	a0,0x10000
     426:	8d0d                	sub	a0,a0,a1
     428:	06a0ae23          	sw	a0,124(ra)

0000042c <inst_32>:
     42c:	080005b7          	lui	a1,0x8000
     430:	02000537          	lui	a0,0x2000
     434:	8d0d                	sub	a0,a0,a1
     436:	08a0a023          	sw	a0,128(ra)

0000043a <inst_33>:
     43a:	100005b7          	lui	a1,0x10000
     43e:	00100513          	li	a0,1
     442:	8d0d                	sub	a0,a0,a1
     444:	08a0a223          	sw	a0,132(ra)

00000448 <inst_34>:
     448:	200005b7          	lui	a1,0x20000
     44c:	55555537          	lui	a0,0x55555
     450:	55550513          	addi	a0,a0,1365 # 55555555 <_end+0x55550a51>
     454:	8d0d                	sub	a0,a0,a1
     456:	08a0a423          	sw	a0,136(ra)

0000045a <inst_35>:
     45a:	400005b7          	lui	a1,0x40000
     45e:	ff700513          	li	a0,-9
     462:	8d0d                	sub	a0,a0,a1
     464:	08a0a623          	sw	a0,140(ra)

00000468 <inst_36>:
     468:	ffe00593          	li	a1,-2
     46c:	04000537          	lui	a0,0x4000
     470:	8d0d                	sub	a0,a0,a1
     472:	08a0a823          	sw	a0,144(ra)

00000476 <inst_37>:
     476:	ffd00593          	li	a1,-3
     47a:	fe000537          	lui	a0,0xfe000
     47e:	fff50513          	addi	a0,a0,-1 # fdffffff <_end+0xfdffb4fb>
     482:	8d0d                	sub	a0,a0,a1
     484:	08a0aa23          	sw	a0,148(ra)

00000488 <inst_38>:
     488:	ffb00593          	li	a1,-5
     48c:	33333537          	lui	a0,0x33333
     490:	33450513          	addi	a0,a0,820 # 33333334 <_end+0x3332e830>
     494:	8d0d                	sub	a0,a0,a1
     496:	08a0ac23          	sw	a0,152(ra)

0000049a <inst_39>:
     49a:	ff700593          	li	a1,-9
     49e:	fffc0537          	lui	a0,0xfffc0
     4a2:	fff50513          	addi	a0,a0,-1 # fffbffff <_end+0xfffbb4fb>
     4a6:	8d0d                	sub	a0,a0,a1
     4a8:	08a0ae23          	sw	a0,156(ra)

000004ac <inst_40>:
     4ac:	fef00593          	li	a1,-17
     4b0:	00000513          	li	a0,0
     4b4:	8d0d                	sub	a0,a0,a1
     4b6:	0aa0a023          	sw	a0,160(ra)

000004ba <inst_41>:
     4ba:	fdf00593          	li	a1,-33
     4be:	01000513          	li	a0,16
     4c2:	8d0d                	sub	a0,a0,a1
     4c4:	0aa0a223          	sw	a0,164(ra)

000004c8 <inst_42>:
     4c8:	fbf00593          	li	a1,-65
     4cc:	c0000537          	lui	a0,0xc0000
     4d0:	fff50513          	addi	a0,a0,-1 # bfffffff <_end+0xbfffb4fb>
     4d4:	8d0d                	sub	a0,a0,a1
     4d6:	0aa0a423          	sw	a0,168(ra)

000004da <inst_43>:
     4da:	f7f00593          	li	a1,-129
     4de:	00800513          	li	a0,8
     4e2:	8d0d                	sub	a0,a0,a1
     4e4:	0aa0a623          	sw	a0,172(ra)

000004e8 <inst_44>:
     4e8:	eff00593          	li	a1,-257
     4ec:	ffd00513          	li	a0,-3
     4f0:	8d0d                	sub	a0,a0,a1
     4f2:	0aa0a823          	sw	a0,176(ra)

000004f6 <inst_45>:
     4f6:	dff00593          	li	a1,-513
     4fa:	ffc00513          	li	a0,-4
     4fe:	8d0d                	sub	a0,a0,a1
     500:	0aa0aa23          	sw	a0,180(ra)

00000504 <inst_46>:
     504:	bff00593          	li	a1,-1025
     508:	ffe00513          	li	a0,-2
     50c:	8d0d                	sub	a0,a0,a1
     50e:	0aa0ac23          	sw	a0,184(ra)

00000512 <inst_47>:
     512:	fffff5b7          	lui	a1,0xfffff
     516:	7ff58593          	addi	a1,a1,2047 # fffff7ff <_end+0xffffacfb>
     51a:	00000513          	li	a0,0
     51e:	8d0d                	sub	a0,a0,a1
     520:	0aa0ae23          	sw	a0,188(ra)

00000524 <inst_48>:
     524:	fffff5b7          	lui	a1,0xfffff
     528:	fff58593          	addi	a1,a1,-1 # ffffefff <_end+0xffffa4fb>
     52c:	f7f00513          	li	a0,-129
     530:	8d0d                	sub	a0,a0,a1
     532:	0ca0a023          	sw	a0,192(ra)

00000536 <inst_49>:
     536:	ffffe5b7          	lui	a1,0xffffe
     53a:	fff58593          	addi	a1,a1,-1 # ffffdfff <_end+0xffff94fb>
     53e:	fffff537          	lui	a0,0xfffff
     542:	7ff50513          	addi	a0,a0,2047 # fffff7ff <_end+0xffffacfb>
     546:	8d0d                	sub	a0,a0,a1
     548:	0ca0a223          	sw	a0,196(ra)

0000054c <inst_50>:
     54c:	ffffc5b7          	lui	a1,0xffffc
     550:	fff58593          	addi	a1,a1,-1 # ffffbfff <_end+0xffff74fb>
     554:	00001537          	lui	a0,0x1
     558:	80050513          	addi	a0,a0,-2048 # 800 <inst_88+0xc>
     55c:	8d0d                	sub	a0,a0,a1
     55e:	0ca0a423          	sw	a0,200(ra)

00000562 <inst_51>:
     562:	ffff85b7          	lui	a1,0xffff8
     566:	fff58593          	addi	a1,a1,-1 # ffff7fff <_end+0xffff34fb>
     56a:	bff00513          	li	a0,-1025
     56e:	8d0d                	sub	a0,a0,a1
     570:	0ca0a623          	sw	a0,204(ra)

00000574 <inst_52>:
     574:	ffff05b7          	lui	a1,0xffff0
     578:	fff58593          	addi	a1,a1,-1 # fffeffff <_end+0xfffeb4fb>
     57c:	00080537          	lui	a0,0x80
     580:	8d0d                	sub	a0,a0,a1
     582:	0ca0a823          	sw	a0,208(ra)

00000586 <inst_53>:
     586:	fffe05b7          	lui	a1,0xfffe0
     58a:	fff58593          	addi	a1,a1,-1 # fffdffff <_end+0xfffdb4fb>
     58e:	80000537          	lui	a0,0x80000
     592:	fff50513          	addi	a0,a0,-1 # 7fffffff <_end+0x7fffb4fb>
     596:	8d0d                	sub	a0,a0,a1
     598:	0ca0aa23          	sw	a0,212(ra)

0000059c <inst_54>:
     59c:	fffc05b7          	lui	a1,0xfffc0
     5a0:	fff58593          	addi	a1,a1,-1 # fffbffff <_end+0xfffbb4fb>
     5a4:	00200513          	li	a0,2
     5a8:	8d0d                	sub	a0,a0,a1
     5aa:	0ca0ac23          	sw	a0,216(ra)

000005ae <inst_55>:
     5ae:	fff805b7          	lui	a1,0xfff80
     5b2:	fff58593          	addi	a1,a1,-1 # fff7ffff <_end+0xfff7b4fb>
     5b6:	00200513          	li	a0,2
     5ba:	8d0d                	sub	a0,a0,a1
     5bc:	0ca0ae23          	sw	a0,220(ra)

000005c0 <inst_56>:
     5c0:	fff005b7          	lui	a1,0xfff00
     5c4:	fff58593          	addi	a1,a1,-1 # ffefffff <_end+0xffefb4fb>
     5c8:	00001537          	lui	a0,0x1
     5cc:	80050513          	addi	a0,a0,-2048 # 800 <inst_88+0xc>
     5d0:	8d0d                	sub	a0,a0,a1
     5d2:	0ea0a023          	sw	a0,224(ra)

000005d6 <inst_57>:
     5d6:	ffe005b7          	lui	a1,0xffe00
     5da:	fff58593          	addi	a1,a1,-1 # ffdfffff <_end+0xffdfb4fb>
     5de:	33333537          	lui	a0,0x33333
     5e2:	33350513          	addi	a0,a0,819 # 33333333 <_end+0x3332e82f>
     5e6:	8d0d                	sub	a0,a0,a1
     5e8:	0ea0a223          	sw	a0,228(ra)

000005ec <inst_58>:
     5ec:	ffc005b7          	lui	a1,0xffc00
     5f0:	fff58593          	addi	a1,a1,-1 # ffbfffff <_end+0xffbfb4fb>
     5f4:	00008537          	lui	a0,0x8
     5f8:	8d0d                	sub	a0,a0,a1
     5fa:	0ea0a423          	sw	a0,232(ra)

000005fe <inst_59>:
     5fe:	ff8005b7          	lui	a1,0xff800
     602:	fff58593          	addi	a1,a1,-1 # ff7fffff <_end+0xff7fb4fb>
     606:	bff00513          	li	a0,-1025
     60a:	8d0d                	sub	a0,a0,a1
     60c:	0ea0a623          	sw	a0,236(ra)

00000610 <inst_60>:
     610:	ff0005b7          	lui	a1,0xff000
     614:	fff58593          	addi	a1,a1,-1 # feffffff <_end+0xfeffb4fb>
     618:	33333537          	lui	a0,0x33333
     61c:	33350513          	addi	a0,a0,819 # 33333333 <_end+0x3332e82f>
     620:	8d0d                	sub	a0,a0,a1
     622:	0ea0a823          	sw	a0,240(ra)

00000626 <inst_61>:
     626:	fe0005b7          	lui	a1,0xfe000
     62a:	fff58593          	addi	a1,a1,-1 # fdffffff <_end+0xfdffb4fb>
     62e:	ffe00537          	lui	a0,0xffe00
     632:	fff50513          	addi	a0,a0,-1 # ffdfffff <_end+0xffdfb4fb>
     636:	8d0d                	sub	a0,a0,a1
     638:	0ea0aa23          	sw	a0,244(ra)

0000063c <inst_62>:
     63c:	fc0005b7          	lui	a1,0xfc000
     640:	fff58593          	addi	a1,a1,-1 # fbffffff <_end+0xfbffb4fb>
     644:	ffff5537          	lui	a0,0xffff5
     648:	afd50513          	addi	a0,a0,-1283 # ffff4afd <_end+0xfffefff9>
     64c:	8d0d                	sub	a0,a0,a1
     64e:	0ea0ac23          	sw	a0,248(ra)

00000652 <inst_63>:
     652:	f00005b7          	lui	a1,0xf0000
     656:	fff58593          	addi	a1,a1,-1 # efffffff <_end+0xefffb4fb>
     65a:	ff600513          	li	a0,-10
     65e:	8d0d                	sub	a0,a0,a1
     660:	0ea0ae23          	sw	a0,252(ra)

00000664 <inst_64>:
     664:	e00005b7          	lui	a1,0xe0000
     668:	fff58593          	addi	a1,a1,-1 # dfffffff <_end+0xdfffb4fb>
     66c:	00002537          	lui	a0,0x2
     670:	8d0d                	sub	a0,a0,a1
     672:	10a0a023          	sw	a0,256(ra)

00000676 <inst_65>:
     676:	c00005b7          	lui	a1,0xc0000
     67a:	fff58593          	addi	a1,a1,-1 # bfffffff <_end+0xbfffb4fb>
     67e:	aaaab537          	lui	a0,0xaaaab
     682:	aaa50513          	addi	a0,a0,-1366 # aaaaaaaa <_end+0xaaaa5fa6>
     686:	8d0d                	sub	a0,a0,a1
     688:	10a0a223          	sw	a0,260(ra)

0000068c <inst_66>:
     68c:	555555b7          	lui	a1,0x55555
     690:	55558593          	addi	a1,a1,1365 # 55555555 <_end+0x55550a51>
     694:	fe000537          	lui	a0,0xfe000
     698:	fff50513          	addi	a0,a0,-1 # fdffffff <_end+0xfdffb4fb>
     69c:	8d0d                	sub	a0,a0,a1
     69e:	10a0a423          	sw	a0,264(ra)

000006a2 <inst_67>:
     6a2:	aaaab5b7          	lui	a1,0xaaaab
     6a6:	aaa58593          	addi	a1,a1,-1366 # aaaaaaaa <_end+0xaaaa5fa6>
     6aa:	ffff5537          	lui	a0,0xffff5
     6ae:	afd50513          	addi	a0,a0,-1283 # ffff4afd <_end+0xfffefff9>
     6b2:	8d0d                	sub	a0,a0,a1
     6b4:	10a0a623          	sw	a0,268(ra)

000006b8 <inst_68>:
     6b8:	666665b7          	lui	a1,0x66666
     6bc:	66558593          	addi	a1,a1,1637 # 66666665 <_end+0x66661b61>
     6c0:	04000513          	li	a0,64
     6c4:	8d0d                	sub	a0,a0,a1
     6c6:	10a0a823          	sw	a0,272(ra)

000006ca <inst_69>:
     6ca:	010005b7          	lui	a1,0x1000
     6ce:	08000513          	li	a0,128
     6d2:	8d0d                	sub	a0,a0,a1
     6d4:	10a0aa23          	sw	a0,276(ra)

000006d8 <inst_70>:
     6d8:	02000593          	li	a1,32
     6dc:	20000513          	li	a0,512
     6e0:	8d0d                	sub	a0,a0,a1
     6e2:	10a0ac23          	sw	a0,280(ra)

000006e6 <inst_71>:
     6e6:	ffe00593          	li	a1,-2
     6ea:	40000513          	li	a0,1024
     6ee:	8d0d                	sub	a0,a0,a1
     6f0:	10a0ae23          	sw	a0,284(ra)

000006f4 <inst_72>:
     6f4:	ffff55b7          	lui	a1,0xffff5
     6f8:	afd58593          	addi	a1,a1,-1283 # ffff4afd <_end+0xfffefff9>
     6fc:	00001537          	lui	a0,0x1
     700:	8d0d                	sub	a0,a0,a1
     702:	12a0a023          	sw	a0,288(ra)

00000706 <inst_73>:
     706:	00000593          	li	a1,0
     70a:	00004537          	lui	a0,0x4
     70e:	8d0d                	sub	a0,a0,a1
     710:	12a0a223          	sw	a0,292(ra)

00000714 <inst_74>:
     714:	666665b7          	lui	a1,0x66666
     718:	66558593          	addi	a1,a1,1637 # 66666665 <_end+0x66661b61>
     71c:	00010537          	lui	a0,0x10
     720:	8d0d                	sub	a0,a0,a1
     722:	12a0a423          	sw	a0,296(ra)

00000726 <inst_75>:
     726:	001005b7          	lui	a1,0x100
     72a:	00020537          	lui	a0,0x20
     72e:	8d0d                	sub	a0,a0,a1
     730:	12a0a623          	sw	a0,300(ra)

00000734 <inst_76>:
     734:	004005b7          	lui	a1,0x400
     738:	00200537          	lui	a0,0x200
     73c:	8d0d                	sub	a0,a0,a1
     73e:	12a0a823          	sw	a0,304(ra)

00000742 <inst_77>:
     742:	fdf00593          	li	a1,-33
     746:	00400537          	lui	a0,0x400
     74a:	8d0d                	sub	a0,a0,a1
     74c:	12a0aa23          	sw	a0,308(ra)

00000750 <inst_78>:
     750:	00200593          	li	a1,2
     754:	00800537          	lui	a0,0x800
     758:	8d0d                	sub	a0,a0,a1
     75a:	12a0ac23          	sw	a0,312(ra)

0000075e <inst_79>:
     75e:	fff805b7          	lui	a1,0xfff80
     762:	fff58593          	addi	a1,a1,-1 # fff7ffff <_end+0xfff7b4fb>
     766:	01000537          	lui	a0,0x1000
     76a:	8d0d                	sub	a0,a0,a1
     76c:	12a0ae23          	sw	a0,316(ra)

00000770 <inst_80>:
     770:	fef00593          	li	a1,-17
     774:	08000537          	lui	a0,0x8000
     778:	8d0d                	sub	a0,a0,a1
     77a:	14a0a023          	sw	a0,320(ra)

0000077e <inst_81>:
     77e:	666665b7          	lui	a1,0x66666
     782:	66558593          	addi	a1,a1,1637 # 66666665 <_end+0x66661b61>
     786:	20000537          	lui	a0,0x20000
     78a:	8d0d                	sub	a0,a0,a1
     78c:	14a0a223          	sw	a0,324(ra)

00000790 <inst_82>:
     790:	40000593          	li	a1,1024
     794:	ffb00513          	li	a0,-5
     798:	8d0d                	sub	a0,a0,a1
     79a:	14a0a423          	sw	a0,328(ra)

0000079e <inst_83>:
     79e:	fbf00593          	li	a1,-65
     7a2:	fdf00513          	li	a0,-33
     7a6:	8d0d                	sub	a0,a0,a1
     7a8:	14a0a623          	sw	a0,332(ra)

000007ac <inst_84>:
     7ac:	ffc00593          	li	a1,-4
     7b0:	dff00513          	li	a0,-513
     7b4:	8d0d                	sub	a0,a0,a1
     7b6:	14a0a823          	sw	a0,336(ra)

000007ba <inst_85>:
     7ba:	08000593          	li	a1,128
     7be:	ffffe537          	lui	a0,0xffffe
     7c2:	fff50513          	addi	a0,a0,-1 # ffffdfff <_end+0xffff94fb>
     7c6:	8d0d                	sub	a0,a0,a1
     7c8:	14a0aa23          	sw	a0,340(ra)

000007cc <inst_86>:
     7cc:	fff005b7          	lui	a1,0xfff00
     7d0:	fff58593          	addi	a1,a1,-1 # ffefffff <_end+0xffefb4fb>
     7d4:	ffffc537          	lui	a0,0xffffc
     7d8:	fff50513          	addi	a0,a0,-1 # ffffbfff <_end+0xffff74fb>
     7dc:	8d0d                	sub	a0,a0,a1
     7de:	14a0ac23          	sw	a0,344(ra)

000007e2 <inst_87>:
     7e2:	01000593          	li	a1,16
     7e6:	ffff8537          	lui	a0,0xffff8
     7ea:	fff50513          	addi	a0,a0,-1 # ffff7fff <_end+0xffff34fb>
     7ee:	8d0d                	sub	a0,a0,a1
     7f0:	14a0ae23          	sw	a0,348(ra)

000007f4 <inst_88>:
     7f4:	40000593          	li	a1,1024
     7f8:	ffff0537          	lui	a0,0xffff0
     7fc:	fff50513          	addi	a0,a0,-1 # fffeffff <_end+0xfffeb4fb>
     800:	8d0d                	sub	a0,a0,a1
     802:	16a0a023          	sw	a0,352(ra)

00000806 <inst_89>:
     806:	fffc05b7          	lui	a1,0xfffc0
     80a:	fff58593          	addi	a1,a1,-1 # fffbffff <_end+0xfffbb4fb>
     80e:	fffe0537          	lui	a0,0xfffe0
     812:	fff50513          	addi	a0,a0,-1 # fffdffff <_end+0xfffdb4fb>
     816:	8d0d                	sub	a0,a0,a1
     818:	16a0a223          	sw	a0,356(ra)

0000081c <inst_90>:
     81c:	800005b7          	lui	a1,0x80000
     820:	fff80537          	lui	a0,0xfff80
     824:	fff50513          	addi	a0,a0,-1 # fff7ffff <_end+0xfff7b4fb>
     828:	8d0d                	sub	a0,a0,a1
     82a:	16a0a423          	sw	a0,360(ra)

0000082e <inst_91>:
     82e:	555555b7          	lui	a1,0x55555
     832:	55658593          	addi	a1,a1,1366 # 55555556 <_end+0x55550a52>
     836:	fff00537          	lui	a0,0xfff00
     83a:	fff50513          	addi	a0,a0,-1 # ffefffff <_end+0xffefb4fb>
     83e:	8d0d                	sub	a0,a0,a1
     840:	16a0a623          	sw	a0,364(ra)

00000844 <inst_92>:
     844:	ffff55b7          	lui	a1,0xffff5
     848:	afc58593          	addi	a1,a1,-1284 # ffff4afc <_end+0xfffefff8>
     84c:	ffc00537          	lui	a0,0xffc00
     850:	fff50513          	addi	a0,a0,-1 # ffbfffff <_end+0xffbfb4fb>
     854:	8d0d                	sub	a0,a0,a1
     856:	16a0a823          	sw	a0,368(ra)

0000085a <inst_93>:
     85a:	555555b7          	lui	a1,0x55555
     85e:	55458593          	addi	a1,a1,1364 # 55555554 <_end+0x55550a50>
     862:	ff800537          	lui	a0,0xff800
     866:	fff50513          	addi	a0,a0,-1 # ff7fffff <_end+0xff7fb4fb>
     86a:	8d0d                	sub	a0,a0,a1
     86c:	16a0aa23          	sw	a0,372(ra)

00000870 <inst_94>:
     870:	fff00593          	li	a1,-1
     874:	fc000537          	lui	a0,0xfc000
     878:	fff50513          	addi	a0,a0,-1 # fbffffff <_end+0xfbffb4fb>
     87c:	8d0d                	sub	a0,a0,a1
     87e:	16a0ac23          	sw	a0,376(ra)

00000882 <inst_95>:
     882:	400005b7          	lui	a1,0x40000
     886:	f8000537          	lui	a0,0xf8000
     88a:	fff50513          	addi	a0,a0,-1 # f7ffffff <_end+0xf7ffb4fb>
     88e:	8d0d                	sub	a0,a0,a1
     890:	16a0ae23          	sw	a0,380(ra)

00000894 <inst_96>:
     894:	000015b7          	lui	a1,0x1
     898:	f0000537          	lui	a0,0xf0000
     89c:	fff50513          	addi	a0,a0,-1 # efffffff <_end+0xefffb4fb>
     8a0:	8d0d                	sub	a0,a0,a1
     8a2:	18a0a023          	sw	a0,384(ra)

000008a6 <inst_97>:
     8a6:	aaaab5b7          	lui	a1,0xaaaab
     8aa:	aaa58593          	addi	a1,a1,-1366 # aaaaaaaa <_end+0xaaaa5fa6>
     8ae:	e0000537          	lui	a0,0xe0000
     8b2:	fff50513          	addi	a0,a0,-1 # dfffffff <_end+0xdfffb4fb>
     8b6:	8d0d                	sub	a0,a0,a1
     8b8:	18a0a223          	sw	a0,388(ra)

000008bc <inst_98>:
     8bc:	00300593          	li	a1,3
     8c0:	00300513          	li	a0,3
     8c4:	8d0d                	sub	a0,a0,a1
     8c6:	18a0a423          	sw	a0,392(ra)

000008ca <inst_99>:
     8ca:	555555b7          	lui	a1,0x55555
     8ce:	55558593          	addi	a1,a1,1365 # 55555555 <_end+0x55550a51>
     8d2:	00300513          	li	a0,3
     8d6:	8d0d                	sub	a0,a0,a1
     8d8:	18a0a623          	sw	a0,396(ra)

000008dc <inst_100>:
     8dc:	aaaab5b7          	lui	a1,0xaaaab
     8e0:	aaa58593          	addi	a1,a1,-1366 # aaaaaaaa <_end+0xaaaa5fa6>
     8e4:	00300513          	li	a0,3
     8e8:	8d0d                	sub	a0,a0,a1
     8ea:	18a0a823          	sw	a0,400(ra)

000008ee <inst_101>:
     8ee:	00500593          	li	a1,5
     8f2:	00300513          	li	a0,3
     8f6:	8d0d                	sub	a0,a0,a1
     8f8:	18a0aa23          	sw	a0,404(ra)

000008fc <inst_102>:
     8fc:	333335b7          	lui	a1,0x33333
     900:	33358593          	addi	a1,a1,819 # 33333333 <_end+0x3332e82f>
     904:	00300513          	li	a0,3
     908:	8d0d                	sub	a0,a0,a1
     90a:	18a0ac23          	sw	a0,408(ra)

0000090e <inst_103>:
     90e:	666665b7          	lui	a1,0x66666
     912:	66658593          	addi	a1,a1,1638 # 66666666 <_end+0x66661b62>
     916:	00300513          	li	a0,3
     91a:	8d0d                	sub	a0,a0,a1
     91c:	18a0ae23          	sw	a0,412(ra)

00000920 <inst_104>:
     920:	ffff55b7          	lui	a1,0xffff5
     924:	afc58593          	addi	a1,a1,-1284 # ffff4afc <_end+0xfffefff8>
     928:	00300513          	li	a0,3
     92c:	8d0d                	sub	a0,a0,a1
     92e:	1aa0a023          	sw	a0,416(ra)

00000932 <inst_105>:
     932:	0000b5b7          	lui	a1,0xb
     936:	50458593          	addi	a1,a1,1284 # b504 <_end+0x6a00>
     93a:	00300513          	li	a0,3
     93e:	8d0d                	sub	a0,a0,a1
     940:	1aa0a223          	sw	a0,420(ra)

00000944 <inst_106>:
     944:	00200593          	li	a1,2
     948:	00300513          	li	a0,3
     94c:	8d0d                	sub	a0,a0,a1
     94e:	1aa0a423          	sw	a0,424(ra)

00000952 <inst_107>:
     952:	555555b7          	lui	a1,0x55555
     956:	55458593          	addi	a1,a1,1364 # 55555554 <_end+0x55550a50>
     95a:	00300513          	li	a0,3
     95e:	8d0d                	sub	a0,a0,a1
     960:	1aa0a623          	sw	a0,428(ra)

00000964 <inst_108>:
     964:	00000593          	li	a1,0
     968:	00300513          	li	a0,3
     96c:	8d0d                	sub	a0,a0,a1
     96e:	1aa0a823          	sw	a0,432(ra)

00000972 <inst_109>:
     972:	00400593          	li	a1,4
     976:	00300513          	li	a0,3
     97a:	8d0d                	sub	a0,a0,a1
     97c:	1aa0aa23          	sw	a0,436(ra)

00000980 <inst_110>:
     980:	333335b7          	lui	a1,0x33333
     984:	33258593          	addi	a1,a1,818 # 33333332 <_end+0x3332e82e>
     988:	00300513          	li	a0,3
     98c:	8d0d                	sub	a0,a0,a1
     98e:	1aa0ac23          	sw	a0,440(ra)

00000992 <inst_111>:
     992:	666665b7          	lui	a1,0x66666
     996:	66558593          	addi	a1,a1,1637 # 66666665 <_end+0x66661b61>
     99a:	00300513          	li	a0,3
     99e:	8d0d                	sub	a0,a0,a1
     9a0:	1aa0ae23          	sw	a0,444(ra)

000009a4 <inst_112>:
     9a4:	0000b5b7          	lui	a1,0xb
     9a8:	50358593          	addi	a1,a1,1283 # b503 <_end+0x69ff>
     9ac:	00300513          	li	a0,3
     9b0:	8d0d                	sub	a0,a0,a1
     9b2:	1ca0a023          	sw	a0,448(ra)

000009b6 <inst_113>:
     9b6:	555555b7          	lui	a1,0x55555
     9ba:	55658593          	addi	a1,a1,1366 # 55555556 <_end+0x55550a52>
     9be:	00300513          	li	a0,3
     9c2:	8d0d                	sub	a0,a0,a1
     9c4:	1ca0a223          	sw	a0,452(ra)

000009c8 <inst_114>:
     9c8:	aaaab5b7          	lui	a1,0xaaaab
     9cc:	aab58593          	addi	a1,a1,-1365 # aaaaaaab <_end+0xaaaa5fa7>
     9d0:	00300513          	li	a0,3
     9d4:	8d0d                	sub	a0,a0,a1
     9d6:	1ca0a423          	sw	a0,456(ra)

000009da <inst_115>:
     9da:	00600593          	li	a1,6
     9de:	00300513          	li	a0,3
     9e2:	8d0d                	sub	a0,a0,a1
     9e4:	1ca0a623          	sw	a0,460(ra)

000009e8 <inst_116>:
     9e8:	333335b7          	lui	a1,0x33333
     9ec:	33458593          	addi	a1,a1,820 # 33333334 <_end+0x3332e830>
     9f0:	00300513          	li	a0,3
     9f4:	8d0d                	sub	a0,a0,a1
     9f6:	1ca0a823          	sw	a0,464(ra)

000009fa <inst_117>:
     9fa:	666665b7          	lui	a1,0x66666
     9fe:	66758593          	addi	a1,a1,1639 # 66666667 <_end+0x66661b63>
     a02:	00300513          	li	a0,3
     a06:	8d0d                	sub	a0,a0,a1
     a08:	1ca0aa23          	sw	a0,468(ra)

00000a0c <inst_118>:
     a0c:	ffff55b7          	lui	a1,0xffff5
     a10:	afd58593          	addi	a1,a1,-1283 # ffff4afd <_end+0xfffefff9>
     a14:	00300513          	li	a0,3
     a18:	8d0d                	sub	a0,a0,a1
     a1a:	1ca0ac23          	sw	a0,472(ra)

00000a1e <inst_119>:
     a1e:	0000b5b7          	lui	a1,0xb
     a22:	50558593          	addi	a1,a1,1285 # b505 <_end+0x6a01>
     a26:	00300513          	li	a0,3
     a2a:	8d0d                	sub	a0,a0,a1
     a2c:	1ca0ae23          	sw	a0,476(ra)

00000a30 <inst_120>:
     a30:	00300593          	li	a1,3
     a34:	55555537          	lui	a0,0x55555
     a38:	55550513          	addi	a0,a0,1365 # 55555555 <_end+0x55550a51>
     a3c:	8d0d                	sub	a0,a0,a1
     a3e:	1ea0a023          	sw	a0,480(ra)

00000a42 <inst_121>:
     a42:	555555b7          	lui	a1,0x55555
     a46:	55558593          	addi	a1,a1,1365 # 55555555 <_end+0x55550a51>
     a4a:	55555537          	lui	a0,0x55555
     a4e:	55550513          	addi	a0,a0,1365 # 55555555 <_end+0x55550a51>
     a52:	8d0d                	sub	a0,a0,a1
     a54:	1ea0a223          	sw	a0,484(ra)

00000a58 <inst_122>:
     a58:	aaaab5b7          	lui	a1,0xaaaab
     a5c:	aaa58593          	addi	a1,a1,-1366 # aaaaaaaa <_end+0xaaaa5fa6>
     a60:	55555537          	lui	a0,0x55555
     a64:	55550513          	addi	a0,a0,1365 # 55555555 <_end+0x55550a51>
     a68:	8d0d                	sub	a0,a0,a1
     a6a:	1ea0a423          	sw	a0,488(ra)

00000a6e <inst_123>:
     a6e:	00500593          	li	a1,5
     a72:	55555537          	lui	a0,0x55555
     a76:	55550513          	addi	a0,a0,1365 # 55555555 <_end+0x55550a51>
     a7a:	8d0d                	sub	a0,a0,a1
     a7c:	1ea0a623          	sw	a0,492(ra)

00000a80 <inst_124>:
     a80:	333335b7          	lui	a1,0x33333
     a84:	33358593          	addi	a1,a1,819 # 33333333 <_end+0x3332e82f>
     a88:	55555537          	lui	a0,0x55555
     a8c:	55550513          	addi	a0,a0,1365 # 55555555 <_end+0x55550a51>
     a90:	8d0d                	sub	a0,a0,a1
     a92:	1ea0a823          	sw	a0,496(ra)

00000a96 <inst_125>:
     a96:	666665b7          	lui	a1,0x66666
     a9a:	66658593          	addi	a1,a1,1638 # 66666666 <_end+0x66661b62>
     a9e:	55555537          	lui	a0,0x55555
     aa2:	55550513          	addi	a0,a0,1365 # 55555555 <_end+0x55550a51>
     aa6:	8d0d                	sub	a0,a0,a1
     aa8:	1ea0aa23          	sw	a0,500(ra)

00000aac <inst_126>:
     aac:	ffff55b7          	lui	a1,0xffff5
     ab0:	afc58593          	addi	a1,a1,-1284 # ffff4afc <_end+0xfffefff8>
     ab4:	55555537          	lui	a0,0x55555
     ab8:	55550513          	addi	a0,a0,1365 # 55555555 <_end+0x55550a51>
     abc:	8d0d                	sub	a0,a0,a1
     abe:	1ea0ac23          	sw	a0,504(ra)

00000ac2 <inst_127>:
     ac2:	0000b5b7          	lui	a1,0xb
     ac6:	50458593          	addi	a1,a1,1284 # b504 <_end+0x6a00>
     aca:	55555537          	lui	a0,0x55555
     ace:	55550513          	addi	a0,a0,1365 # 55555555 <_end+0x55550a51>
     ad2:	8d0d                	sub	a0,a0,a1
     ad4:	1ea0ae23          	sw	a0,508(ra)

00000ad8 <inst_128>:
     ad8:	00200593          	li	a1,2
     adc:	55555537          	lui	a0,0x55555
     ae0:	55550513          	addi	a0,a0,1365 # 55555555 <_end+0x55550a51>
     ae4:	8d0d                	sub	a0,a0,a1
     ae6:	20a0a023          	sw	a0,512(ra)

00000aea <inst_129>:
     aea:	555555b7          	lui	a1,0x55555
     aee:	55458593          	addi	a1,a1,1364 # 55555554 <_end+0x55550a50>
     af2:	55555537          	lui	a0,0x55555
     af6:	55550513          	addi	a0,a0,1365 # 55555555 <_end+0x55550a51>
     afa:	8d0d                	sub	a0,a0,a1
     afc:	20a0a223          	sw	a0,516(ra)

00000b00 <inst_130>:
     b00:	00000593          	li	a1,0
     b04:	55555537          	lui	a0,0x55555
     b08:	55550513          	addi	a0,a0,1365 # 55555555 <_end+0x55550a51>
     b0c:	8d0d                	sub	a0,a0,a1
     b0e:	20a0a423          	sw	a0,520(ra)

00000b12 <inst_131>:
     b12:	00400593          	li	a1,4
     b16:	55555537          	lui	a0,0x55555
     b1a:	55550513          	addi	a0,a0,1365 # 55555555 <_end+0x55550a51>
     b1e:	8d0d                	sub	a0,a0,a1
     b20:	20a0a623          	sw	a0,524(ra)

00000b24 <inst_132>:
     b24:	333335b7          	lui	a1,0x33333
     b28:	33258593          	addi	a1,a1,818 # 33333332 <_end+0x3332e82e>
     b2c:	55555537          	lui	a0,0x55555
     b30:	55550513          	addi	a0,a0,1365 # 55555555 <_end+0x55550a51>
     b34:	8d0d                	sub	a0,a0,a1
     b36:	20a0a823          	sw	a0,528(ra)

00000b3a <inst_133>:
     b3a:	666665b7          	lui	a1,0x66666
     b3e:	66558593          	addi	a1,a1,1637 # 66666665 <_end+0x66661b61>
     b42:	55555537          	lui	a0,0x55555
     b46:	55550513          	addi	a0,a0,1365 # 55555555 <_end+0x55550a51>
     b4a:	8d0d                	sub	a0,a0,a1
     b4c:	20a0aa23          	sw	a0,532(ra)

00000b50 <inst_134>:
     b50:	0000b5b7          	lui	a1,0xb
     b54:	50358593          	addi	a1,a1,1283 # b503 <_end+0x69ff>
     b58:	55555537          	lui	a0,0x55555
     b5c:	55550513          	addi	a0,a0,1365 # 55555555 <_end+0x55550a51>
     b60:	8d0d                	sub	a0,a0,a1
     b62:	20a0ac23          	sw	a0,536(ra)

00000b66 <inst_135>:
     b66:	555555b7          	lui	a1,0x55555
     b6a:	55658593          	addi	a1,a1,1366 # 55555556 <_end+0x55550a52>
     b6e:	55555537          	lui	a0,0x55555
     b72:	55550513          	addi	a0,a0,1365 # 55555555 <_end+0x55550a51>
     b76:	8d0d                	sub	a0,a0,a1
     b78:	20a0ae23          	sw	a0,540(ra)

00000b7c <inst_136>:
     b7c:	aaaab5b7          	lui	a1,0xaaaab
     b80:	aab58593          	addi	a1,a1,-1365 # aaaaaaab <_end+0xaaaa5fa7>
     b84:	55555537          	lui	a0,0x55555
     b88:	55550513          	addi	a0,a0,1365 # 55555555 <_end+0x55550a51>
     b8c:	8d0d                	sub	a0,a0,a1
     b8e:	22a0a023          	sw	a0,544(ra)

00000b92 <inst_137>:
     b92:	00600593          	li	a1,6
     b96:	55555537          	lui	a0,0x55555
     b9a:	55550513          	addi	a0,a0,1365 # 55555555 <_end+0x55550a51>
     b9e:	8d0d                	sub	a0,a0,a1
     ba0:	22a0a223          	sw	a0,548(ra)

00000ba4 <inst_138>:
     ba4:	333335b7          	lui	a1,0x33333
     ba8:	33458593          	addi	a1,a1,820 # 33333334 <_end+0x3332e830>
     bac:	55555537          	lui	a0,0x55555
     bb0:	55550513          	addi	a0,a0,1365 # 55555555 <_end+0x55550a51>
     bb4:	8d0d                	sub	a0,a0,a1
     bb6:	22a0a423          	sw	a0,552(ra)

00000bba <inst_139>:
     bba:	666665b7          	lui	a1,0x66666
     bbe:	66758593          	addi	a1,a1,1639 # 66666667 <_end+0x66661b63>
     bc2:	55555537          	lui	a0,0x55555
     bc6:	55550513          	addi	a0,a0,1365 # 55555555 <_end+0x55550a51>
     bca:	8d0d                	sub	a0,a0,a1
     bcc:	22a0a623          	sw	a0,556(ra)

00000bd0 <inst_140>:
     bd0:	ffff55b7          	lui	a1,0xffff5
     bd4:	afd58593          	addi	a1,a1,-1283 # ffff4afd <_end+0xfffefff9>
     bd8:	55555537          	lui	a0,0x55555
     bdc:	55550513          	addi	a0,a0,1365 # 55555555 <_end+0x55550a51>
     be0:	8d0d                	sub	a0,a0,a1
     be2:	22a0a823          	sw	a0,560(ra)

00000be6 <inst_141>:
     be6:	0000b5b7          	lui	a1,0xb
     bea:	50558593          	addi	a1,a1,1285 # b505 <_end+0x6a01>
     bee:	55555537          	lui	a0,0x55555
     bf2:	55550513          	addi	a0,a0,1365 # 55555555 <_end+0x55550a51>
     bf6:	8d0d                	sub	a0,a0,a1
     bf8:	22a0aa23          	sw	a0,564(ra)

00000bfc <inst_142>:
     bfc:	00300593          	li	a1,3
     c00:	aaaab537          	lui	a0,0xaaaab
     c04:	aaa50513          	addi	a0,a0,-1366 # aaaaaaaa <_end+0xaaaa5fa6>
     c08:	8d0d                	sub	a0,a0,a1
     c0a:	22a0ac23          	sw	a0,568(ra)

00000c0e <inst_143>:
     c0e:	555555b7          	lui	a1,0x55555
     c12:	55558593          	addi	a1,a1,1365 # 55555555 <_end+0x55550a51>
     c16:	aaaab537          	lui	a0,0xaaaab
     c1a:	aaa50513          	addi	a0,a0,-1366 # aaaaaaaa <_end+0xaaaa5fa6>
     c1e:	8d0d                	sub	a0,a0,a1
     c20:	22a0ae23          	sw	a0,572(ra)

00000c24 <inst_144>:
     c24:	aaaab5b7          	lui	a1,0xaaaab
     c28:	aaa58593          	addi	a1,a1,-1366 # aaaaaaaa <_end+0xaaaa5fa6>
     c2c:	aaaab537          	lui	a0,0xaaaab
     c30:	aaa50513          	addi	a0,a0,-1366 # aaaaaaaa <_end+0xaaaa5fa6>
     c34:	8d0d                	sub	a0,a0,a1
     c36:	24a0a023          	sw	a0,576(ra)

00000c3a <inst_145>:
     c3a:	00500593          	li	a1,5
     c3e:	aaaab537          	lui	a0,0xaaaab
     c42:	aaa50513          	addi	a0,a0,-1366 # aaaaaaaa <_end+0xaaaa5fa6>
     c46:	8d0d                	sub	a0,a0,a1
     c48:	24a0a223          	sw	a0,580(ra)

00000c4c <inst_146>:
     c4c:	333335b7          	lui	a1,0x33333
     c50:	33358593          	addi	a1,a1,819 # 33333333 <_end+0x3332e82f>
     c54:	aaaab537          	lui	a0,0xaaaab
     c58:	aaa50513          	addi	a0,a0,-1366 # aaaaaaaa <_end+0xaaaa5fa6>
     c5c:	8d0d                	sub	a0,a0,a1
     c5e:	24a0a423          	sw	a0,584(ra)

00000c62 <inst_147>:
     c62:	666665b7          	lui	a1,0x66666
     c66:	66658593          	addi	a1,a1,1638 # 66666666 <_end+0x66661b62>
     c6a:	aaaab537          	lui	a0,0xaaaab
     c6e:	aaa50513          	addi	a0,a0,-1366 # aaaaaaaa <_end+0xaaaa5fa6>
     c72:	8d0d                	sub	a0,a0,a1
     c74:	24a0a623          	sw	a0,588(ra)

00000c78 <inst_148>:
     c78:	ffff55b7          	lui	a1,0xffff5
     c7c:	afc58593          	addi	a1,a1,-1284 # ffff4afc <_end+0xfffefff8>
     c80:	aaaab537          	lui	a0,0xaaaab
     c84:	aaa50513          	addi	a0,a0,-1366 # aaaaaaaa <_end+0xaaaa5fa6>
     c88:	8d0d                	sub	a0,a0,a1
     c8a:	24a0a823          	sw	a0,592(ra)

00000c8e <inst_149>:
     c8e:	0000b5b7          	lui	a1,0xb
     c92:	50458593          	addi	a1,a1,1284 # b504 <_end+0x6a00>
     c96:	aaaab537          	lui	a0,0xaaaab
     c9a:	aaa50513          	addi	a0,a0,-1366 # aaaaaaaa <_end+0xaaaa5fa6>
     c9e:	8d0d                	sub	a0,a0,a1
     ca0:	24a0aa23          	sw	a0,596(ra)

00000ca4 <inst_150>:
     ca4:	00200593          	li	a1,2
     ca8:	aaaab537          	lui	a0,0xaaaab
     cac:	aaa50513          	addi	a0,a0,-1366 # aaaaaaaa <_end+0xaaaa5fa6>
     cb0:	8d0d                	sub	a0,a0,a1
     cb2:	24a0ac23          	sw	a0,600(ra)

00000cb6 <inst_151>:
     cb6:	555555b7          	lui	a1,0x55555
     cba:	55458593          	addi	a1,a1,1364 # 55555554 <_end+0x55550a50>
     cbe:	aaaab537          	lui	a0,0xaaaab
     cc2:	aaa50513          	addi	a0,a0,-1366 # aaaaaaaa <_end+0xaaaa5fa6>
     cc6:	8d0d                	sub	a0,a0,a1
     cc8:	24a0ae23          	sw	a0,604(ra)

00000ccc <inst_152>:
     ccc:	00000593          	li	a1,0
     cd0:	aaaab537          	lui	a0,0xaaaab
     cd4:	aaa50513          	addi	a0,a0,-1366 # aaaaaaaa <_end+0xaaaa5fa6>
     cd8:	8d0d                	sub	a0,a0,a1
     cda:	26a0a023          	sw	a0,608(ra)

00000cde <inst_153>:
     cde:	00400593          	li	a1,4
     ce2:	aaaab537          	lui	a0,0xaaaab
     ce6:	aaa50513          	addi	a0,a0,-1366 # aaaaaaaa <_end+0xaaaa5fa6>
     cea:	8d0d                	sub	a0,a0,a1
     cec:	26a0a223          	sw	a0,612(ra)

00000cf0 <inst_154>:
     cf0:	333335b7          	lui	a1,0x33333
     cf4:	33258593          	addi	a1,a1,818 # 33333332 <_end+0x3332e82e>
     cf8:	aaaab537          	lui	a0,0xaaaab
     cfc:	aaa50513          	addi	a0,a0,-1366 # aaaaaaaa <_end+0xaaaa5fa6>
     d00:	8d0d                	sub	a0,a0,a1
     d02:	26a0a423          	sw	a0,616(ra)

00000d06 <inst_155>:
     d06:	666665b7          	lui	a1,0x66666
     d0a:	66558593          	addi	a1,a1,1637 # 66666665 <_end+0x66661b61>
     d0e:	aaaab537          	lui	a0,0xaaaab
     d12:	aaa50513          	addi	a0,a0,-1366 # aaaaaaaa <_end+0xaaaa5fa6>
     d16:	8d0d                	sub	a0,a0,a1
     d18:	26a0a623          	sw	a0,620(ra)

00000d1c <inst_156>:
     d1c:	0000b5b7          	lui	a1,0xb
     d20:	50358593          	addi	a1,a1,1283 # b503 <_end+0x69ff>
     d24:	aaaab537          	lui	a0,0xaaaab
     d28:	aaa50513          	addi	a0,a0,-1366 # aaaaaaaa <_end+0xaaaa5fa6>
     d2c:	8d0d                	sub	a0,a0,a1
     d2e:	26a0a823          	sw	a0,624(ra)

00000d32 <inst_157>:
     d32:	555555b7          	lui	a1,0x55555
     d36:	55658593          	addi	a1,a1,1366 # 55555556 <_end+0x55550a52>
     d3a:	aaaab537          	lui	a0,0xaaaab
     d3e:	aaa50513          	addi	a0,a0,-1366 # aaaaaaaa <_end+0xaaaa5fa6>
     d42:	8d0d                	sub	a0,a0,a1
     d44:	26a0aa23          	sw	a0,628(ra)

00000d48 <inst_158>:
     d48:	aaaab5b7          	lui	a1,0xaaaab
     d4c:	aab58593          	addi	a1,a1,-1365 # aaaaaaab <_end+0xaaaa5fa7>
     d50:	aaaab537          	lui	a0,0xaaaab
     d54:	aaa50513          	addi	a0,a0,-1366 # aaaaaaaa <_end+0xaaaa5fa6>
     d58:	8d0d                	sub	a0,a0,a1
     d5a:	26a0ac23          	sw	a0,632(ra)

00000d5e <inst_159>:
     d5e:	00600593          	li	a1,6
     d62:	aaaab537          	lui	a0,0xaaaab
     d66:	aaa50513          	addi	a0,a0,-1366 # aaaaaaaa <_end+0xaaaa5fa6>
     d6a:	8d0d                	sub	a0,a0,a1
     d6c:	26a0ae23          	sw	a0,636(ra)

00000d70 <inst_160>:
     d70:	333335b7          	lui	a1,0x33333
     d74:	33458593          	addi	a1,a1,820 # 33333334 <_end+0x3332e830>
     d78:	aaaab537          	lui	a0,0xaaaab
     d7c:	aaa50513          	addi	a0,a0,-1366 # aaaaaaaa <_end+0xaaaa5fa6>
     d80:	8d0d                	sub	a0,a0,a1
     d82:	28a0a023          	sw	a0,640(ra)

00000d86 <inst_161>:
     d86:	666665b7          	lui	a1,0x66666
     d8a:	66758593          	addi	a1,a1,1639 # 66666667 <_end+0x66661b63>
     d8e:	aaaab537          	lui	a0,0xaaaab
     d92:	aaa50513          	addi	a0,a0,-1366 # aaaaaaaa <_end+0xaaaa5fa6>
     d96:	8d0d                	sub	a0,a0,a1
     d98:	28a0a223          	sw	a0,644(ra)

00000d9c <inst_162>:
     d9c:	ffff55b7          	lui	a1,0xffff5
     da0:	afd58593          	addi	a1,a1,-1283 # ffff4afd <_end+0xfffefff9>
     da4:	aaaab537          	lui	a0,0xaaaab
     da8:	aaa50513          	addi	a0,a0,-1366 # aaaaaaaa <_end+0xaaaa5fa6>
     dac:	8d0d                	sub	a0,a0,a1
     dae:	28a0a423          	sw	a0,648(ra)

00000db2 <inst_163>:
     db2:	0000b5b7          	lui	a1,0xb
     db6:	50558593          	addi	a1,a1,1285 # b505 <_end+0x6a01>
     dba:	aaaab537          	lui	a0,0xaaaab
     dbe:	aaa50513          	addi	a0,a0,-1366 # aaaaaaaa <_end+0xaaaa5fa6>
     dc2:	8d0d                	sub	a0,a0,a1
     dc4:	28a0a623          	sw	a0,652(ra)

00000dc8 <inst_164>:
     dc8:	00300593          	li	a1,3
     dcc:	00500513          	li	a0,5
     dd0:	8d0d                	sub	a0,a0,a1
     dd2:	28a0a823          	sw	a0,656(ra)

00000dd6 <inst_165>:
     dd6:	555555b7          	lui	a1,0x55555
     dda:	55558593          	addi	a1,a1,1365 # 55555555 <_end+0x55550a51>
     dde:	00500513          	li	a0,5
     de2:	8d0d                	sub	a0,a0,a1
     de4:	28a0aa23          	sw	a0,660(ra)

00000de8 <inst_166>:
     de8:	aaaab5b7          	lui	a1,0xaaaab
     dec:	aaa58593          	addi	a1,a1,-1366 # aaaaaaaa <_end+0xaaaa5fa6>
     df0:	00500513          	li	a0,5
     df4:	8d0d                	sub	a0,a0,a1
     df6:	28a0ac23          	sw	a0,664(ra)

00000dfa <inst_167>:
     dfa:	00500593          	li	a1,5
     dfe:	00500513          	li	a0,5
     e02:	8d0d                	sub	a0,a0,a1
     e04:	28a0ae23          	sw	a0,668(ra)

00000e08 <inst_168>:
     e08:	333335b7          	lui	a1,0x33333
     e0c:	33358593          	addi	a1,a1,819 # 33333333 <_end+0x3332e82f>
     e10:	00500513          	li	a0,5
     e14:	8d0d                	sub	a0,a0,a1
     e16:	2aa0a023          	sw	a0,672(ra)

00000e1a <inst_169>:
     e1a:	666665b7          	lui	a1,0x66666
     e1e:	66658593          	addi	a1,a1,1638 # 66666666 <_end+0x66661b62>
     e22:	00500513          	li	a0,5
     e26:	8d0d                	sub	a0,a0,a1
     e28:	2aa0a223          	sw	a0,676(ra)

00000e2c <inst_170>:
     e2c:	ffff55b7          	lui	a1,0xffff5
     e30:	afc58593          	addi	a1,a1,-1284 # ffff4afc <_end+0xfffefff8>
     e34:	00500513          	li	a0,5
     e38:	8d0d                	sub	a0,a0,a1
     e3a:	2aa0a423          	sw	a0,680(ra)

00000e3e <inst_171>:
     e3e:	0000b5b7          	lui	a1,0xb
     e42:	50458593          	addi	a1,a1,1284 # b504 <_end+0x6a00>
     e46:	00500513          	li	a0,5
     e4a:	8d0d                	sub	a0,a0,a1
     e4c:	2aa0a623          	sw	a0,684(ra)

00000e50 <inst_172>:
     e50:	00200593          	li	a1,2
     e54:	00500513          	li	a0,5
     e58:	8d0d                	sub	a0,a0,a1
     e5a:	2aa0a823          	sw	a0,688(ra)

00000e5e <inst_173>:
     e5e:	555555b7          	lui	a1,0x55555
     e62:	55458593          	addi	a1,a1,1364 # 55555554 <_end+0x55550a50>
     e66:	00500513          	li	a0,5
     e6a:	8d0d                	sub	a0,a0,a1
     e6c:	2aa0aa23          	sw	a0,692(ra)

00000e70 <inst_174>:
     e70:	00000593          	li	a1,0
     e74:	00500513          	li	a0,5
     e78:	8d0d                	sub	a0,a0,a1
     e7a:	2aa0ac23          	sw	a0,696(ra)

00000e7e <inst_175>:
     e7e:	00400593          	li	a1,4
     e82:	00500513          	li	a0,5
     e86:	8d0d                	sub	a0,a0,a1
     e88:	2aa0ae23          	sw	a0,700(ra)

00000e8c <inst_176>:
     e8c:	333335b7          	lui	a1,0x33333
     e90:	33258593          	addi	a1,a1,818 # 33333332 <_end+0x3332e82e>
     e94:	00500513          	li	a0,5
     e98:	8d0d                	sub	a0,a0,a1
     e9a:	2ca0a023          	sw	a0,704(ra)

00000e9e <inst_177>:
     e9e:	666665b7          	lui	a1,0x66666
     ea2:	66558593          	addi	a1,a1,1637 # 66666665 <_end+0x66661b61>
     ea6:	00500513          	li	a0,5
     eaa:	8d0d                	sub	a0,a0,a1
     eac:	2ca0a223          	sw	a0,708(ra)

00000eb0 <inst_178>:
     eb0:	0000b5b7          	lui	a1,0xb
     eb4:	50358593          	addi	a1,a1,1283 # b503 <_end+0x69ff>
     eb8:	00500513          	li	a0,5
     ebc:	8d0d                	sub	a0,a0,a1
     ebe:	2ca0a423          	sw	a0,712(ra)

00000ec2 <inst_179>:
     ec2:	555555b7          	lui	a1,0x55555
     ec6:	55658593          	addi	a1,a1,1366 # 55555556 <_end+0x55550a52>
     eca:	00500513          	li	a0,5
     ece:	8d0d                	sub	a0,a0,a1
     ed0:	2ca0a623          	sw	a0,716(ra)

00000ed4 <inst_180>:
     ed4:	aaaab5b7          	lui	a1,0xaaaab
     ed8:	aab58593          	addi	a1,a1,-1365 # aaaaaaab <_end+0xaaaa5fa7>
     edc:	00500513          	li	a0,5
     ee0:	8d0d                	sub	a0,a0,a1
     ee2:	2ca0a823          	sw	a0,720(ra)

00000ee6 <inst_181>:
     ee6:	00600593          	li	a1,6
     eea:	00500513          	li	a0,5
     eee:	8d0d                	sub	a0,a0,a1
     ef0:	2ca0aa23          	sw	a0,724(ra)

00000ef4 <inst_182>:
     ef4:	333335b7          	lui	a1,0x33333
     ef8:	33458593          	addi	a1,a1,820 # 33333334 <_end+0x3332e830>
     efc:	00500513          	li	a0,5
     f00:	8d0d                	sub	a0,a0,a1
     f02:	2ca0ac23          	sw	a0,728(ra)

00000f06 <inst_183>:
     f06:	666665b7          	lui	a1,0x66666
     f0a:	66758593          	addi	a1,a1,1639 # 66666667 <_end+0x66661b63>
     f0e:	00500513          	li	a0,5
     f12:	8d0d                	sub	a0,a0,a1
     f14:	2ca0ae23          	sw	a0,732(ra)

00000f18 <inst_184>:
     f18:	ffff55b7          	lui	a1,0xffff5
     f1c:	afd58593          	addi	a1,a1,-1283 # ffff4afd <_end+0xfffefff9>
     f20:	00500513          	li	a0,5
     f24:	8d0d                	sub	a0,a0,a1
     f26:	2ea0a023          	sw	a0,736(ra)

00000f2a <inst_185>:
     f2a:	0000b5b7          	lui	a1,0xb
     f2e:	50558593          	addi	a1,a1,1285 # b505 <_end+0x6a01>
     f32:	00500513          	li	a0,5
     f36:	8d0d                	sub	a0,a0,a1
     f38:	2ea0a223          	sw	a0,740(ra)

00000f3c <inst_186>:
     f3c:	00300593          	li	a1,3
     f40:	33333537          	lui	a0,0x33333
     f44:	33350513          	addi	a0,a0,819 # 33333333 <_end+0x3332e82f>
     f48:	8d0d                	sub	a0,a0,a1
     f4a:	2ea0a423          	sw	a0,744(ra)

00000f4e <inst_187>:
     f4e:	555555b7          	lui	a1,0x55555
     f52:	55558593          	addi	a1,a1,1365 # 55555555 <_end+0x55550a51>
     f56:	33333537          	lui	a0,0x33333
     f5a:	33350513          	addi	a0,a0,819 # 33333333 <_end+0x3332e82f>
     f5e:	8d0d                	sub	a0,a0,a1
     f60:	2ea0a623          	sw	a0,748(ra)

00000f64 <inst_188>:
     f64:	aaaab5b7          	lui	a1,0xaaaab
     f68:	aaa58593          	addi	a1,a1,-1366 # aaaaaaaa <_end+0xaaaa5fa6>
     f6c:	33333537          	lui	a0,0x33333
     f70:	33350513          	addi	a0,a0,819 # 33333333 <_end+0x3332e82f>
     f74:	8d0d                	sub	a0,a0,a1
     f76:	2ea0a823          	sw	a0,752(ra)

00000f7a <inst_189>:
     f7a:	00500593          	li	a1,5
     f7e:	33333537          	lui	a0,0x33333
     f82:	33350513          	addi	a0,a0,819 # 33333333 <_end+0x3332e82f>
     f86:	8d0d                	sub	a0,a0,a1
     f88:	2ea0aa23          	sw	a0,756(ra)

00000f8c <inst_190>:
     f8c:	333335b7          	lui	a1,0x33333
     f90:	33358593          	addi	a1,a1,819 # 33333333 <_end+0x3332e82f>
     f94:	33333537          	lui	a0,0x33333
     f98:	33350513          	addi	a0,a0,819 # 33333333 <_end+0x3332e82f>
     f9c:	8d0d                	sub	a0,a0,a1
     f9e:	2ea0ac23          	sw	a0,760(ra)

00000fa2 <inst_191>:
     fa2:	666665b7          	lui	a1,0x66666
     fa6:	66658593          	addi	a1,a1,1638 # 66666666 <_end+0x66661b62>
     faa:	33333537          	lui	a0,0x33333
     fae:	33350513          	addi	a0,a0,819 # 33333333 <_end+0x3332e82f>
     fb2:	8d0d                	sub	a0,a0,a1
     fb4:	2ea0ae23          	sw	a0,764(ra)

00000fb8 <inst_192>:
     fb8:	ffff55b7          	lui	a1,0xffff5
     fbc:	afc58593          	addi	a1,a1,-1284 # ffff4afc <_end+0xfffefff8>
     fc0:	33333537          	lui	a0,0x33333
     fc4:	33350513          	addi	a0,a0,819 # 33333333 <_end+0x3332e82f>
     fc8:	8d0d                	sub	a0,a0,a1
     fca:	30a0a023          	sw	a0,768(ra)

00000fce <inst_193>:
     fce:	0000b5b7          	lui	a1,0xb
     fd2:	50458593          	addi	a1,a1,1284 # b504 <_end+0x6a00>
     fd6:	33333537          	lui	a0,0x33333
     fda:	33350513          	addi	a0,a0,819 # 33333333 <_end+0x3332e82f>
     fde:	8d0d                	sub	a0,a0,a1
     fe0:	30a0a223          	sw	a0,772(ra)

00000fe4 <inst_194>:
     fe4:	00200593          	li	a1,2
     fe8:	33333537          	lui	a0,0x33333
     fec:	33350513          	addi	a0,a0,819 # 33333333 <_end+0x3332e82f>
     ff0:	8d0d                	sub	a0,a0,a1
     ff2:	30a0a423          	sw	a0,776(ra)

00000ff6 <inst_195>:
     ff6:	555555b7          	lui	a1,0x55555
     ffa:	55458593          	addi	a1,a1,1364 # 55555554 <_end+0x55550a50>
     ffe:	33333537          	lui	a0,0x33333
    1002:	33350513          	addi	a0,a0,819 # 33333333 <_end+0x3332e82f>
    1006:	8d0d                	sub	a0,a0,a1
    1008:	30a0a623          	sw	a0,780(ra)

0000100c <inst_196>:
    100c:	00000593          	li	a1,0
    1010:	33333537          	lui	a0,0x33333
    1014:	33350513          	addi	a0,a0,819 # 33333333 <_end+0x3332e82f>
    1018:	8d0d                	sub	a0,a0,a1
    101a:	30a0a823          	sw	a0,784(ra)

0000101e <inst_197>:
    101e:	00400593          	li	a1,4
    1022:	33333537          	lui	a0,0x33333
    1026:	33350513          	addi	a0,a0,819 # 33333333 <_end+0x3332e82f>
    102a:	8d0d                	sub	a0,a0,a1
    102c:	30a0aa23          	sw	a0,788(ra)

00001030 <inst_198>:
    1030:	333335b7          	lui	a1,0x33333
    1034:	33258593          	addi	a1,a1,818 # 33333332 <_end+0x3332e82e>
    1038:	33333537          	lui	a0,0x33333
    103c:	33350513          	addi	a0,a0,819 # 33333333 <_end+0x3332e82f>
    1040:	8d0d                	sub	a0,a0,a1
    1042:	30a0ac23          	sw	a0,792(ra)

00001046 <inst_199>:
    1046:	666665b7          	lui	a1,0x66666
    104a:	66558593          	addi	a1,a1,1637 # 66666665 <_end+0x66661b61>
    104e:	33333537          	lui	a0,0x33333
    1052:	33350513          	addi	a0,a0,819 # 33333333 <_end+0x3332e82f>
    1056:	8d0d                	sub	a0,a0,a1
    1058:	30a0ae23          	sw	a0,796(ra)

0000105c <inst_200>:
    105c:	0000b5b7          	lui	a1,0xb
    1060:	50358593          	addi	a1,a1,1283 # b503 <_end+0x69ff>
    1064:	33333537          	lui	a0,0x33333
    1068:	33350513          	addi	a0,a0,819 # 33333333 <_end+0x3332e82f>
    106c:	8d0d                	sub	a0,a0,a1
    106e:	32a0a023          	sw	a0,800(ra)

00001072 <inst_201>:
    1072:	555555b7          	lui	a1,0x55555
    1076:	55658593          	addi	a1,a1,1366 # 55555556 <_end+0x55550a52>
    107a:	33333537          	lui	a0,0x33333
    107e:	33350513          	addi	a0,a0,819 # 33333333 <_end+0x3332e82f>
    1082:	8d0d                	sub	a0,a0,a1
    1084:	32a0a223          	sw	a0,804(ra)

00001088 <inst_202>:
    1088:	aaaab5b7          	lui	a1,0xaaaab
    108c:	aab58593          	addi	a1,a1,-1365 # aaaaaaab <_end+0xaaaa5fa7>
    1090:	33333537          	lui	a0,0x33333
    1094:	33350513          	addi	a0,a0,819 # 33333333 <_end+0x3332e82f>
    1098:	8d0d                	sub	a0,a0,a1
    109a:	32a0a423          	sw	a0,808(ra)

0000109e <inst_203>:
    109e:	00600593          	li	a1,6
    10a2:	33333537          	lui	a0,0x33333
    10a6:	33350513          	addi	a0,a0,819 # 33333333 <_end+0x3332e82f>
    10aa:	8d0d                	sub	a0,a0,a1
    10ac:	32a0a623          	sw	a0,812(ra)

000010b0 <inst_204>:
    10b0:	333335b7          	lui	a1,0x33333
    10b4:	33458593          	addi	a1,a1,820 # 33333334 <_end+0x3332e830>
    10b8:	33333537          	lui	a0,0x33333
    10bc:	33350513          	addi	a0,a0,819 # 33333333 <_end+0x3332e82f>
    10c0:	8d0d                	sub	a0,a0,a1
    10c2:	32a0a823          	sw	a0,816(ra)

000010c6 <inst_205>:
    10c6:	666665b7          	lui	a1,0x66666
    10ca:	66758593          	addi	a1,a1,1639 # 66666667 <_end+0x66661b63>
    10ce:	33333537          	lui	a0,0x33333
    10d2:	33350513          	addi	a0,a0,819 # 33333333 <_end+0x3332e82f>
    10d6:	8d0d                	sub	a0,a0,a1
    10d8:	32a0aa23          	sw	a0,820(ra)

000010dc <inst_206>:
    10dc:	ffff55b7          	lui	a1,0xffff5
    10e0:	afd58593          	addi	a1,a1,-1283 # ffff4afd <_end+0xfffefff9>
    10e4:	33333537          	lui	a0,0x33333
    10e8:	33350513          	addi	a0,a0,819 # 33333333 <_end+0x3332e82f>
    10ec:	8d0d                	sub	a0,a0,a1
    10ee:	32a0ac23          	sw	a0,824(ra)

000010f2 <inst_207>:
    10f2:	0000b5b7          	lui	a1,0xb
    10f6:	50558593          	addi	a1,a1,1285 # b505 <_end+0x6a01>
    10fa:	33333537          	lui	a0,0x33333
    10fe:	33350513          	addi	a0,a0,819 # 33333333 <_end+0x3332e82f>
    1102:	8d0d                	sub	a0,a0,a1
    1104:	32a0ae23          	sw	a0,828(ra)

00001108 <inst_208>:
    1108:	00300593          	li	a1,3
    110c:	66666537          	lui	a0,0x66666
    1110:	66650513          	addi	a0,a0,1638 # 66666666 <_end+0x66661b62>
    1114:	8d0d                	sub	a0,a0,a1
    1116:	34a0a023          	sw	a0,832(ra)

0000111a <inst_209>:
    111a:	555555b7          	lui	a1,0x55555
    111e:	55558593          	addi	a1,a1,1365 # 55555555 <_end+0x55550a51>
    1122:	66666537          	lui	a0,0x66666
    1126:	66650513          	addi	a0,a0,1638 # 66666666 <_end+0x66661b62>
    112a:	8d0d                	sub	a0,a0,a1
    112c:	34a0a223          	sw	a0,836(ra)

00001130 <inst_210>:
    1130:	aaaab5b7          	lui	a1,0xaaaab
    1134:	aaa58593          	addi	a1,a1,-1366 # aaaaaaaa <_end+0xaaaa5fa6>
    1138:	66666537          	lui	a0,0x66666
    113c:	66650513          	addi	a0,a0,1638 # 66666666 <_end+0x66661b62>
    1140:	8d0d                	sub	a0,a0,a1
    1142:	34a0a423          	sw	a0,840(ra)

00001146 <inst_211>:
    1146:	00500593          	li	a1,5
    114a:	66666537          	lui	a0,0x66666
    114e:	66650513          	addi	a0,a0,1638 # 66666666 <_end+0x66661b62>
    1152:	8d0d                	sub	a0,a0,a1
    1154:	34a0a623          	sw	a0,844(ra)

00001158 <inst_212>:
    1158:	333335b7          	lui	a1,0x33333
    115c:	33358593          	addi	a1,a1,819 # 33333333 <_end+0x3332e82f>
    1160:	66666537          	lui	a0,0x66666
    1164:	66650513          	addi	a0,a0,1638 # 66666666 <_end+0x66661b62>
    1168:	8d0d                	sub	a0,a0,a1
    116a:	34a0a823          	sw	a0,848(ra)

0000116e <inst_213>:
    116e:	666665b7          	lui	a1,0x66666
    1172:	66658593          	addi	a1,a1,1638 # 66666666 <_end+0x66661b62>
    1176:	66666537          	lui	a0,0x66666
    117a:	66650513          	addi	a0,a0,1638 # 66666666 <_end+0x66661b62>
    117e:	8d0d                	sub	a0,a0,a1
    1180:	34a0aa23          	sw	a0,852(ra)

00001184 <inst_214>:
    1184:	ffff55b7          	lui	a1,0xffff5
    1188:	afc58593          	addi	a1,a1,-1284 # ffff4afc <_end+0xfffefff8>
    118c:	66666537          	lui	a0,0x66666
    1190:	66650513          	addi	a0,a0,1638 # 66666666 <_end+0x66661b62>
    1194:	8d0d                	sub	a0,a0,a1
    1196:	34a0ac23          	sw	a0,856(ra)

0000119a <inst_215>:
    119a:	0000b5b7          	lui	a1,0xb
    119e:	50458593          	addi	a1,a1,1284 # b504 <_end+0x6a00>
    11a2:	66666537          	lui	a0,0x66666
    11a6:	66650513          	addi	a0,a0,1638 # 66666666 <_end+0x66661b62>
    11aa:	8d0d                	sub	a0,a0,a1
    11ac:	34a0ae23          	sw	a0,860(ra)

000011b0 <inst_216>:
    11b0:	00200593          	li	a1,2
    11b4:	66666537          	lui	a0,0x66666
    11b8:	66650513          	addi	a0,a0,1638 # 66666666 <_end+0x66661b62>
    11bc:	8d0d                	sub	a0,a0,a1
    11be:	36a0a023          	sw	a0,864(ra)

000011c2 <inst_217>:
    11c2:	555555b7          	lui	a1,0x55555
    11c6:	55458593          	addi	a1,a1,1364 # 55555554 <_end+0x55550a50>
    11ca:	66666537          	lui	a0,0x66666
    11ce:	66650513          	addi	a0,a0,1638 # 66666666 <_end+0x66661b62>
    11d2:	8d0d                	sub	a0,a0,a1
    11d4:	36a0a223          	sw	a0,868(ra)

000011d8 <inst_218>:
    11d8:	00000593          	li	a1,0
    11dc:	66666537          	lui	a0,0x66666
    11e0:	66650513          	addi	a0,a0,1638 # 66666666 <_end+0x66661b62>
    11e4:	8d0d                	sub	a0,a0,a1
    11e6:	36a0a423          	sw	a0,872(ra)

000011ea <inst_219>:
    11ea:	00400593          	li	a1,4
    11ee:	66666537          	lui	a0,0x66666
    11f2:	66650513          	addi	a0,a0,1638 # 66666666 <_end+0x66661b62>
    11f6:	8d0d                	sub	a0,a0,a1
    11f8:	36a0a623          	sw	a0,876(ra)

000011fc <inst_220>:
    11fc:	333335b7          	lui	a1,0x33333
    1200:	33258593          	addi	a1,a1,818 # 33333332 <_end+0x3332e82e>
    1204:	66666537          	lui	a0,0x66666
    1208:	66650513          	addi	a0,a0,1638 # 66666666 <_end+0x66661b62>
    120c:	8d0d                	sub	a0,a0,a1
    120e:	36a0a823          	sw	a0,880(ra)

00001212 <inst_221>:
    1212:	666665b7          	lui	a1,0x66666
    1216:	66558593          	addi	a1,a1,1637 # 66666665 <_end+0x66661b61>
    121a:	66666537          	lui	a0,0x66666
    121e:	66650513          	addi	a0,a0,1638 # 66666666 <_end+0x66661b62>
    1222:	8d0d                	sub	a0,a0,a1
    1224:	36a0aa23          	sw	a0,884(ra)

00001228 <inst_222>:
    1228:	0000b5b7          	lui	a1,0xb
    122c:	50358593          	addi	a1,a1,1283 # b503 <_end+0x69ff>
    1230:	66666537          	lui	a0,0x66666
    1234:	66650513          	addi	a0,a0,1638 # 66666666 <_end+0x66661b62>
    1238:	8d0d                	sub	a0,a0,a1
    123a:	36a0ac23          	sw	a0,888(ra)

0000123e <inst_223>:
    123e:	555555b7          	lui	a1,0x55555
    1242:	55658593          	addi	a1,a1,1366 # 55555556 <_end+0x55550a52>
    1246:	66666537          	lui	a0,0x66666
    124a:	66650513          	addi	a0,a0,1638 # 66666666 <_end+0x66661b62>
    124e:	8d0d                	sub	a0,a0,a1
    1250:	36a0ae23          	sw	a0,892(ra)

00001254 <inst_224>:
    1254:	aaaab5b7          	lui	a1,0xaaaab
    1258:	aab58593          	addi	a1,a1,-1365 # aaaaaaab <_end+0xaaaa5fa7>
    125c:	66666537          	lui	a0,0x66666
    1260:	66650513          	addi	a0,a0,1638 # 66666666 <_end+0x66661b62>
    1264:	8d0d                	sub	a0,a0,a1
    1266:	38a0a023          	sw	a0,896(ra)

0000126a <inst_225>:
    126a:	00600593          	li	a1,6
    126e:	66666537          	lui	a0,0x66666
    1272:	66650513          	addi	a0,a0,1638 # 66666666 <_end+0x66661b62>
    1276:	8d0d                	sub	a0,a0,a1
    1278:	38a0a223          	sw	a0,900(ra)

0000127c <inst_226>:
    127c:	333335b7          	lui	a1,0x33333
    1280:	33458593          	addi	a1,a1,820 # 33333334 <_end+0x3332e830>
    1284:	66666537          	lui	a0,0x66666
    1288:	66650513          	addi	a0,a0,1638 # 66666666 <_end+0x66661b62>
    128c:	8d0d                	sub	a0,a0,a1
    128e:	38a0a423          	sw	a0,904(ra)

00001292 <inst_227>:
    1292:	666665b7          	lui	a1,0x66666
    1296:	66758593          	addi	a1,a1,1639 # 66666667 <_end+0x66661b63>
    129a:	66666537          	lui	a0,0x66666
    129e:	66650513          	addi	a0,a0,1638 # 66666666 <_end+0x66661b62>
    12a2:	8d0d                	sub	a0,a0,a1
    12a4:	38a0a623          	sw	a0,908(ra)

000012a8 <inst_228>:
    12a8:	ffff55b7          	lui	a1,0xffff5
    12ac:	afd58593          	addi	a1,a1,-1283 # ffff4afd <_end+0xfffefff9>
    12b0:	66666537          	lui	a0,0x66666
    12b4:	66650513          	addi	a0,a0,1638 # 66666666 <_end+0x66661b62>
    12b8:	8d0d                	sub	a0,a0,a1
    12ba:	38a0a823          	sw	a0,912(ra)

000012be <inst_229>:
    12be:	0000b5b7          	lui	a1,0xb
    12c2:	50558593          	addi	a1,a1,1285 # b505 <_end+0x6a01>
    12c6:	66666537          	lui	a0,0x66666
    12ca:	66650513          	addi	a0,a0,1638 # 66666666 <_end+0x66661b62>
    12ce:	8d0d                	sub	a0,a0,a1
    12d0:	38a0aa23          	sw	a0,916(ra)

000012d4 <inst_230>:
    12d4:	00300593          	li	a1,3
    12d8:	ffff5537          	lui	a0,0xffff5
    12dc:	afc50513          	addi	a0,a0,-1284 # ffff4afc <_end+0xfffefff8>
    12e0:	8d0d                	sub	a0,a0,a1
    12e2:	38a0ac23          	sw	a0,920(ra)

000012e6 <inst_231>:
    12e6:	555555b7          	lui	a1,0x55555
    12ea:	55558593          	addi	a1,a1,1365 # 55555555 <_end+0x55550a51>
    12ee:	ffff5537          	lui	a0,0xffff5
    12f2:	afc50513          	addi	a0,a0,-1284 # ffff4afc <_end+0xfffefff8>
    12f6:	8d0d                	sub	a0,a0,a1
    12f8:	38a0ae23          	sw	a0,924(ra)

000012fc <inst_232>:
    12fc:	aaaab5b7          	lui	a1,0xaaaab
    1300:	aaa58593          	addi	a1,a1,-1366 # aaaaaaaa <_end+0xaaaa5fa6>
    1304:	ffff5537          	lui	a0,0xffff5
    1308:	afc50513          	addi	a0,a0,-1284 # ffff4afc <_end+0xfffefff8>
    130c:	8d0d                	sub	a0,a0,a1
    130e:	3aa0a023          	sw	a0,928(ra)

00001312 <inst_233>:
    1312:	00500593          	li	a1,5
    1316:	ffff5537          	lui	a0,0xffff5
    131a:	afc50513          	addi	a0,a0,-1284 # ffff4afc <_end+0xfffefff8>
    131e:	8d0d                	sub	a0,a0,a1
    1320:	3aa0a223          	sw	a0,932(ra)

00001324 <inst_234>:
    1324:	333335b7          	lui	a1,0x33333
    1328:	33358593          	addi	a1,a1,819 # 33333333 <_end+0x3332e82f>
    132c:	ffff5537          	lui	a0,0xffff5
    1330:	afc50513          	addi	a0,a0,-1284 # ffff4afc <_end+0xfffefff8>
    1334:	8d0d                	sub	a0,a0,a1
    1336:	3aa0a423          	sw	a0,936(ra)

0000133a <inst_235>:
    133a:	666665b7          	lui	a1,0x66666
    133e:	66658593          	addi	a1,a1,1638 # 66666666 <_end+0x66661b62>
    1342:	ffff5537          	lui	a0,0xffff5
    1346:	afc50513          	addi	a0,a0,-1284 # ffff4afc <_end+0xfffefff8>
    134a:	8d0d                	sub	a0,a0,a1
    134c:	3aa0a623          	sw	a0,940(ra)

00001350 <inst_236>:
    1350:	ffff55b7          	lui	a1,0xffff5
    1354:	afc58593          	addi	a1,a1,-1284 # ffff4afc <_end+0xfffefff8>
    1358:	ffff5537          	lui	a0,0xffff5
    135c:	afc50513          	addi	a0,a0,-1284 # ffff4afc <_end+0xfffefff8>
    1360:	8d0d                	sub	a0,a0,a1
    1362:	3aa0a823          	sw	a0,944(ra)

00001366 <inst_237>:
    1366:	0000b5b7          	lui	a1,0xb
    136a:	50458593          	addi	a1,a1,1284 # b504 <_end+0x6a00>
    136e:	ffff5537          	lui	a0,0xffff5
    1372:	afc50513          	addi	a0,a0,-1284 # ffff4afc <_end+0xfffefff8>
    1376:	8d0d                	sub	a0,a0,a1
    1378:	3aa0aa23          	sw	a0,948(ra)

0000137c <inst_238>:
    137c:	00200593          	li	a1,2
    1380:	ffff5537          	lui	a0,0xffff5
    1384:	afc50513          	addi	a0,a0,-1284 # ffff4afc <_end+0xfffefff8>
    1388:	8d0d                	sub	a0,a0,a1
    138a:	3aa0ac23          	sw	a0,952(ra)

0000138e <inst_239>:
    138e:	555555b7          	lui	a1,0x55555
    1392:	55458593          	addi	a1,a1,1364 # 55555554 <_end+0x55550a50>
    1396:	ffff5537          	lui	a0,0xffff5
    139a:	afc50513          	addi	a0,a0,-1284 # ffff4afc <_end+0xfffefff8>
    139e:	8d0d                	sub	a0,a0,a1
    13a0:	3aa0ae23          	sw	a0,956(ra)

000013a4 <inst_240>:
    13a4:	00000593          	li	a1,0
    13a8:	ffff5537          	lui	a0,0xffff5
    13ac:	afc50513          	addi	a0,a0,-1284 # ffff4afc <_end+0xfffefff8>
    13b0:	8d0d                	sub	a0,a0,a1
    13b2:	3ca0a023          	sw	a0,960(ra)

000013b6 <inst_241>:
    13b6:	00400593          	li	a1,4
    13ba:	ffff5537          	lui	a0,0xffff5
    13be:	afc50513          	addi	a0,a0,-1284 # ffff4afc <_end+0xfffefff8>
    13c2:	8d0d                	sub	a0,a0,a1
    13c4:	3ca0a223          	sw	a0,964(ra)

000013c8 <inst_242>:
    13c8:	333335b7          	lui	a1,0x33333
    13cc:	33258593          	addi	a1,a1,818 # 33333332 <_end+0x3332e82e>
    13d0:	ffff5537          	lui	a0,0xffff5
    13d4:	afc50513          	addi	a0,a0,-1284 # ffff4afc <_end+0xfffefff8>
    13d8:	8d0d                	sub	a0,a0,a1
    13da:	3ca0a423          	sw	a0,968(ra)

000013de <inst_243>:
    13de:	666665b7          	lui	a1,0x66666
    13e2:	66558593          	addi	a1,a1,1637 # 66666665 <_end+0x66661b61>
    13e6:	ffff5537          	lui	a0,0xffff5
    13ea:	afc50513          	addi	a0,a0,-1284 # ffff4afc <_end+0xfffefff8>
    13ee:	8d0d                	sub	a0,a0,a1
    13f0:	3ca0a623          	sw	a0,972(ra)

000013f4 <inst_244>:
    13f4:	0000b5b7          	lui	a1,0xb
    13f8:	50358593          	addi	a1,a1,1283 # b503 <_end+0x69ff>
    13fc:	ffff5537          	lui	a0,0xffff5
    1400:	afc50513          	addi	a0,a0,-1284 # ffff4afc <_end+0xfffefff8>
    1404:	8d0d                	sub	a0,a0,a1
    1406:	3ca0a823          	sw	a0,976(ra)

0000140a <inst_245>:
    140a:	555555b7          	lui	a1,0x55555
    140e:	55658593          	addi	a1,a1,1366 # 55555556 <_end+0x55550a52>
    1412:	ffff5537          	lui	a0,0xffff5
    1416:	afc50513          	addi	a0,a0,-1284 # ffff4afc <_end+0xfffefff8>
    141a:	8d0d                	sub	a0,a0,a1
    141c:	3ca0aa23          	sw	a0,980(ra)

00001420 <inst_246>:
    1420:	aaaab5b7          	lui	a1,0xaaaab
    1424:	aab58593          	addi	a1,a1,-1365 # aaaaaaab <_end+0xaaaa5fa7>
    1428:	ffff5537          	lui	a0,0xffff5
    142c:	afc50513          	addi	a0,a0,-1284 # ffff4afc <_end+0xfffefff8>
    1430:	8d0d                	sub	a0,a0,a1
    1432:	3ca0ac23          	sw	a0,984(ra)

00001436 <inst_247>:
    1436:	00600593          	li	a1,6
    143a:	ffff5537          	lui	a0,0xffff5
    143e:	afc50513          	addi	a0,a0,-1284 # ffff4afc <_end+0xfffefff8>
    1442:	8d0d                	sub	a0,a0,a1
    1444:	3ca0ae23          	sw	a0,988(ra)

00001448 <inst_248>:
    1448:	333335b7          	lui	a1,0x33333
    144c:	33458593          	addi	a1,a1,820 # 33333334 <_end+0x3332e830>
    1450:	ffff5537          	lui	a0,0xffff5
    1454:	afc50513          	addi	a0,a0,-1284 # ffff4afc <_end+0xfffefff8>
    1458:	8d0d                	sub	a0,a0,a1
    145a:	3ea0a023          	sw	a0,992(ra)

0000145e <inst_249>:
    145e:	666665b7          	lui	a1,0x66666
    1462:	66758593          	addi	a1,a1,1639 # 66666667 <_end+0x66661b63>
    1466:	ffff5537          	lui	a0,0xffff5
    146a:	afc50513          	addi	a0,a0,-1284 # ffff4afc <_end+0xfffefff8>
    146e:	8d0d                	sub	a0,a0,a1
    1470:	3ea0a223          	sw	a0,996(ra)

00001474 <inst_250>:
    1474:	ffff55b7          	lui	a1,0xffff5
    1478:	afd58593          	addi	a1,a1,-1283 # ffff4afd <_end+0xfffefff9>
    147c:	ffff5537          	lui	a0,0xffff5
    1480:	afc50513          	addi	a0,a0,-1284 # ffff4afc <_end+0xfffefff8>
    1484:	8d0d                	sub	a0,a0,a1
    1486:	3ea0a423          	sw	a0,1000(ra)

0000148a <inst_251>:
    148a:	0000b5b7          	lui	a1,0xb
    148e:	50558593          	addi	a1,a1,1285 # b505 <_end+0x6a01>
    1492:	ffff5537          	lui	a0,0xffff5
    1496:	afc50513          	addi	a0,a0,-1284 # ffff4afc <_end+0xfffefff8>
    149a:	8d0d                	sub	a0,a0,a1
    149c:	3ea0a623          	sw	a0,1004(ra)

000014a0 <inst_252>:
    14a0:	00300593          	li	a1,3
    14a4:	0000b537          	lui	a0,0xb
    14a8:	50450513          	addi	a0,a0,1284 # b504 <_end+0x6a00>
    14ac:	8d0d                	sub	a0,a0,a1
    14ae:	3ea0a823          	sw	a0,1008(ra)

000014b2 <inst_253>:
    14b2:	555555b7          	lui	a1,0x55555
    14b6:	55558593          	addi	a1,a1,1365 # 55555555 <_end+0x55550a51>
    14ba:	0000b537          	lui	a0,0xb
    14be:	50450513          	addi	a0,a0,1284 # b504 <_end+0x6a00>
    14c2:	8d0d                	sub	a0,a0,a1
    14c4:	3ea0aa23          	sw	a0,1012(ra)

000014c8 <inst_254>:
    14c8:	aaaab5b7          	lui	a1,0xaaaab
    14cc:	aaa58593          	addi	a1,a1,-1366 # aaaaaaaa <_end+0xaaaa5fa6>
    14d0:	0000b537          	lui	a0,0xb
    14d4:	50450513          	addi	a0,a0,1284 # b504 <_end+0x6a00>
    14d8:	8d0d                	sub	a0,a0,a1
    14da:	3ea0ac23          	sw	a0,1016(ra)

000014de <inst_255>:
    14de:	00500593          	li	a1,5
    14e2:	0000b537          	lui	a0,0xb
    14e6:	50450513          	addi	a0,a0,1284 # b504 <_end+0x6a00>
    14ea:	8d0d                	sub	a0,a0,a1
    14ec:	3ea0ae23          	sw	a0,1020(ra)

000014f0 <inst_256>:
    14f0:	333335b7          	lui	a1,0x33333
    14f4:	33358593          	addi	a1,a1,819 # 33333333 <_end+0x3332e82f>
    14f8:	0000b537          	lui	a0,0xb
    14fc:	50450513          	addi	a0,a0,1284 # b504 <_end+0x6a00>
    1500:	8d0d                	sub	a0,a0,a1
    1502:	40a0a023          	sw	a0,1024(ra)

00001506 <inst_257>:
    1506:	666665b7          	lui	a1,0x66666
    150a:	66658593          	addi	a1,a1,1638 # 66666666 <_end+0x66661b62>
    150e:	0000b537          	lui	a0,0xb
    1512:	50450513          	addi	a0,a0,1284 # b504 <_end+0x6a00>
    1516:	8d0d                	sub	a0,a0,a1
    1518:	40a0a223          	sw	a0,1028(ra)

0000151c <inst_258>:
    151c:	ffff55b7          	lui	a1,0xffff5
    1520:	afc58593          	addi	a1,a1,-1284 # ffff4afc <_end+0xfffefff8>
    1524:	0000b537          	lui	a0,0xb
    1528:	50450513          	addi	a0,a0,1284 # b504 <_end+0x6a00>
    152c:	8d0d                	sub	a0,a0,a1
    152e:	40a0a423          	sw	a0,1032(ra)

00001532 <inst_259>:
    1532:	0000b5b7          	lui	a1,0xb
    1536:	50458593          	addi	a1,a1,1284 # b504 <_end+0x6a00>
    153a:	0000b537          	lui	a0,0xb
    153e:	50450513          	addi	a0,a0,1284 # b504 <_end+0x6a00>
    1542:	8d0d                	sub	a0,a0,a1
    1544:	40a0a623          	sw	a0,1036(ra)

00001548 <inst_260>:
    1548:	00200593          	li	a1,2
    154c:	0000b537          	lui	a0,0xb
    1550:	50450513          	addi	a0,a0,1284 # b504 <_end+0x6a00>
    1554:	8d0d                	sub	a0,a0,a1
    1556:	40a0a823          	sw	a0,1040(ra)

0000155a <inst_261>:
    155a:	555555b7          	lui	a1,0x55555
    155e:	55458593          	addi	a1,a1,1364 # 55555554 <_end+0x55550a50>
    1562:	0000b537          	lui	a0,0xb
    1566:	50450513          	addi	a0,a0,1284 # b504 <_end+0x6a00>
    156a:	8d0d                	sub	a0,a0,a1
    156c:	40a0aa23          	sw	a0,1044(ra)

00001570 <inst_262>:
    1570:	00000593          	li	a1,0
    1574:	0000b537          	lui	a0,0xb
    1578:	50450513          	addi	a0,a0,1284 # b504 <_end+0x6a00>
    157c:	8d0d                	sub	a0,a0,a1
    157e:	40a0ac23          	sw	a0,1048(ra)

00001582 <inst_263>:
    1582:	00400593          	li	a1,4
    1586:	0000b537          	lui	a0,0xb
    158a:	50450513          	addi	a0,a0,1284 # b504 <_end+0x6a00>
    158e:	8d0d                	sub	a0,a0,a1
    1590:	40a0ae23          	sw	a0,1052(ra)

00001594 <inst_264>:
    1594:	333335b7          	lui	a1,0x33333
    1598:	33258593          	addi	a1,a1,818 # 33333332 <_end+0x3332e82e>
    159c:	0000b537          	lui	a0,0xb
    15a0:	50450513          	addi	a0,a0,1284 # b504 <_end+0x6a00>
    15a4:	8d0d                	sub	a0,a0,a1
    15a6:	42a0a023          	sw	a0,1056(ra)

000015aa <inst_265>:
    15aa:	666665b7          	lui	a1,0x66666
    15ae:	66558593          	addi	a1,a1,1637 # 66666665 <_end+0x66661b61>
    15b2:	0000b537          	lui	a0,0xb
    15b6:	50450513          	addi	a0,a0,1284 # b504 <_end+0x6a00>
    15ba:	8d0d                	sub	a0,a0,a1
    15bc:	42a0a223          	sw	a0,1060(ra)

000015c0 <inst_266>:
    15c0:	0000b5b7          	lui	a1,0xb
    15c4:	50358593          	addi	a1,a1,1283 # b503 <_end+0x69ff>
    15c8:	0000b537          	lui	a0,0xb
    15cc:	50450513          	addi	a0,a0,1284 # b504 <_end+0x6a00>
    15d0:	8d0d                	sub	a0,a0,a1
    15d2:	42a0a423          	sw	a0,1064(ra)

000015d6 <inst_267>:
    15d6:	555555b7          	lui	a1,0x55555
    15da:	55658593          	addi	a1,a1,1366 # 55555556 <_end+0x55550a52>
    15de:	0000b537          	lui	a0,0xb
    15e2:	50450513          	addi	a0,a0,1284 # b504 <_end+0x6a00>
    15e6:	8d0d                	sub	a0,a0,a1
    15e8:	42a0a623          	sw	a0,1068(ra)

000015ec <inst_268>:
    15ec:	aaaab5b7          	lui	a1,0xaaaab
    15f0:	aab58593          	addi	a1,a1,-1365 # aaaaaaab <_end+0xaaaa5fa7>
    15f4:	0000b537          	lui	a0,0xb
    15f8:	50450513          	addi	a0,a0,1284 # b504 <_end+0x6a00>
    15fc:	8d0d                	sub	a0,a0,a1
    15fe:	42a0a823          	sw	a0,1072(ra)

00001602 <inst_269>:
    1602:	00600593          	li	a1,6
    1606:	0000b537          	lui	a0,0xb
    160a:	50450513          	addi	a0,a0,1284 # b504 <_end+0x6a00>
    160e:	8d0d                	sub	a0,a0,a1
    1610:	42a0aa23          	sw	a0,1076(ra)

00001614 <inst_270>:
    1614:	333335b7          	lui	a1,0x33333
    1618:	33458593          	addi	a1,a1,820 # 33333334 <_end+0x3332e830>
    161c:	0000b537          	lui	a0,0xb
    1620:	50450513          	addi	a0,a0,1284 # b504 <_end+0x6a00>
    1624:	8d0d                	sub	a0,a0,a1
    1626:	42a0ac23          	sw	a0,1080(ra)

0000162a <inst_271>:
    162a:	666665b7          	lui	a1,0x66666
    162e:	66758593          	addi	a1,a1,1639 # 66666667 <_end+0x66661b63>
    1632:	0000b537          	lui	a0,0xb
    1636:	50450513          	addi	a0,a0,1284 # b504 <_end+0x6a00>
    163a:	8d0d                	sub	a0,a0,a1
    163c:	42a0ae23          	sw	a0,1084(ra)

00001640 <inst_272>:
    1640:	ffff55b7          	lui	a1,0xffff5
    1644:	afd58593          	addi	a1,a1,-1283 # ffff4afd <_end+0xfffefff9>
    1648:	0000b537          	lui	a0,0xb
    164c:	50450513          	addi	a0,a0,1284 # b504 <_end+0x6a00>
    1650:	8d0d                	sub	a0,a0,a1
    1652:	44a0a023          	sw	a0,1088(ra)

00001656 <inst_273>:
    1656:	0000b5b7          	lui	a1,0xb
    165a:	50558593          	addi	a1,a1,1285 # b505 <_end+0x6a01>
    165e:	0000b537          	lui	a0,0xb
    1662:	50450513          	addi	a0,a0,1284 # b504 <_end+0x6a00>
    1666:	8d0d                	sub	a0,a0,a1
    1668:	44a0a223          	sw	a0,1092(ra)

0000166c <inst_274>:
    166c:	00300593          	li	a1,3
    1670:	00200513          	li	a0,2
    1674:	8d0d                	sub	a0,a0,a1
    1676:	44a0a423          	sw	a0,1096(ra)

0000167a <inst_275>:
    167a:	555555b7          	lui	a1,0x55555
    167e:	55558593          	addi	a1,a1,1365 # 55555555 <_end+0x55550a51>
    1682:	00200513          	li	a0,2
    1686:	8d0d                	sub	a0,a0,a1
    1688:	44a0a623          	sw	a0,1100(ra)

0000168c <inst_276>:
    168c:	aaaab5b7          	lui	a1,0xaaaab
    1690:	aaa58593          	addi	a1,a1,-1366 # aaaaaaaa <_end+0xaaaa5fa6>
    1694:	00200513          	li	a0,2
    1698:	8d0d                	sub	a0,a0,a1
    169a:	44a0a823          	sw	a0,1104(ra)

0000169e <inst_277>:
    169e:	00500593          	li	a1,5
    16a2:	00200513          	li	a0,2
    16a6:	8d0d                	sub	a0,a0,a1
    16a8:	44a0aa23          	sw	a0,1108(ra)

000016ac <inst_278>:
    16ac:	333335b7          	lui	a1,0x33333
    16b0:	33358593          	addi	a1,a1,819 # 33333333 <_end+0x3332e82f>
    16b4:	00200513          	li	a0,2
    16b8:	8d0d                	sub	a0,a0,a1
    16ba:	44a0ac23          	sw	a0,1112(ra)

000016be <inst_279>:
    16be:	666665b7          	lui	a1,0x66666
    16c2:	66658593          	addi	a1,a1,1638 # 66666666 <_end+0x66661b62>
    16c6:	00200513          	li	a0,2
    16ca:	8d0d                	sub	a0,a0,a1
    16cc:	44a0ae23          	sw	a0,1116(ra)

000016d0 <inst_280>:
    16d0:	ffff55b7          	lui	a1,0xffff5
    16d4:	afc58593          	addi	a1,a1,-1284 # ffff4afc <_end+0xfffefff8>
    16d8:	00200513          	li	a0,2
    16dc:	8d0d                	sub	a0,a0,a1
    16de:	46a0a023          	sw	a0,1120(ra)

000016e2 <inst_281>:
    16e2:	0000b5b7          	lui	a1,0xb
    16e6:	50458593          	addi	a1,a1,1284 # b504 <_end+0x6a00>
    16ea:	00200513          	li	a0,2
    16ee:	8d0d                	sub	a0,a0,a1
    16f0:	46a0a223          	sw	a0,1124(ra)

000016f4 <inst_282>:
    16f4:	00200593          	li	a1,2
    16f8:	00200513          	li	a0,2
    16fc:	8d0d                	sub	a0,a0,a1
    16fe:	46a0a423          	sw	a0,1128(ra)

00001702 <inst_283>:
    1702:	555555b7          	lui	a1,0x55555
    1706:	55458593          	addi	a1,a1,1364 # 55555554 <_end+0x55550a50>
    170a:	00200513          	li	a0,2
    170e:	8d0d                	sub	a0,a0,a1
    1710:	46a0a623          	sw	a0,1132(ra)

00001714 <inst_284>:
    1714:	00000593          	li	a1,0
    1718:	00200513          	li	a0,2
    171c:	8d0d                	sub	a0,a0,a1
    171e:	46a0a823          	sw	a0,1136(ra)

00001722 <inst_285>:
    1722:	00400593          	li	a1,4
    1726:	00200513          	li	a0,2
    172a:	8d0d                	sub	a0,a0,a1
    172c:	46a0aa23          	sw	a0,1140(ra)

00001730 <inst_286>:
    1730:	333335b7          	lui	a1,0x33333
    1734:	33258593          	addi	a1,a1,818 # 33333332 <_end+0x3332e82e>
    1738:	00200513          	li	a0,2
    173c:	8d0d                	sub	a0,a0,a1
    173e:	46a0ac23          	sw	a0,1144(ra)

00001742 <inst_287>:
    1742:	666665b7          	lui	a1,0x66666
    1746:	66558593          	addi	a1,a1,1637 # 66666665 <_end+0x66661b61>
    174a:	00200513          	li	a0,2
    174e:	8d0d                	sub	a0,a0,a1
    1750:	46a0ae23          	sw	a0,1148(ra)

00001754 <inst_288>:
    1754:	0000b5b7          	lui	a1,0xb
    1758:	50358593          	addi	a1,a1,1283 # b503 <_end+0x69ff>
    175c:	00200513          	li	a0,2
    1760:	8d0d                	sub	a0,a0,a1
    1762:	48a0a023          	sw	a0,1152(ra)

00001766 <inst_289>:
    1766:	555555b7          	lui	a1,0x55555
    176a:	55658593          	addi	a1,a1,1366 # 55555556 <_end+0x55550a52>
    176e:	00200513          	li	a0,2
    1772:	8d0d                	sub	a0,a0,a1
    1774:	48a0a223          	sw	a0,1156(ra)

00001778 <inst_290>:
    1778:	aaaab5b7          	lui	a1,0xaaaab
    177c:	aab58593          	addi	a1,a1,-1365 # aaaaaaab <_end+0xaaaa5fa7>
    1780:	00200513          	li	a0,2
    1784:	8d0d                	sub	a0,a0,a1
    1786:	48a0a423          	sw	a0,1160(ra)

0000178a <inst_291>:
    178a:	00600593          	li	a1,6
    178e:	00200513          	li	a0,2
    1792:	8d0d                	sub	a0,a0,a1
    1794:	48a0a623          	sw	a0,1164(ra)

00001798 <inst_292>:
    1798:	333335b7          	lui	a1,0x33333
    179c:	33458593          	addi	a1,a1,820 # 33333334 <_end+0x3332e830>
    17a0:	00200513          	li	a0,2
    17a4:	8d0d                	sub	a0,a0,a1
    17a6:	48a0a823          	sw	a0,1168(ra)

000017aa <inst_293>:
    17aa:	666665b7          	lui	a1,0x66666
    17ae:	66758593          	addi	a1,a1,1639 # 66666667 <_end+0x66661b63>
    17b2:	00200513          	li	a0,2
    17b6:	8d0d                	sub	a0,a0,a1
    17b8:	48a0aa23          	sw	a0,1172(ra)

000017bc <inst_294>:
    17bc:	ffff55b7          	lui	a1,0xffff5
    17c0:	afd58593          	addi	a1,a1,-1283 # ffff4afd <_end+0xfffefff9>
    17c4:	00200513          	li	a0,2
    17c8:	8d0d                	sub	a0,a0,a1
    17ca:	48a0ac23          	sw	a0,1176(ra)

000017ce <inst_295>:
    17ce:	0000b5b7          	lui	a1,0xb
    17d2:	50558593          	addi	a1,a1,1285 # b505 <_end+0x6a01>
    17d6:	00200513          	li	a0,2
    17da:	8d0d                	sub	a0,a0,a1
    17dc:	48a0ae23          	sw	a0,1180(ra)

000017e0 <inst_296>:
    17e0:	00300593          	li	a1,3
    17e4:	55555537          	lui	a0,0x55555
    17e8:	55450513          	addi	a0,a0,1364 # 55555554 <_end+0x55550a50>
    17ec:	8d0d                	sub	a0,a0,a1
    17ee:	4aa0a023          	sw	a0,1184(ra)

000017f2 <inst_297>:
    17f2:	555555b7          	lui	a1,0x55555
    17f6:	55558593          	addi	a1,a1,1365 # 55555555 <_end+0x55550a51>
    17fa:	55555537          	lui	a0,0x55555
    17fe:	55450513          	addi	a0,a0,1364 # 55555554 <_end+0x55550a50>
    1802:	8d0d                	sub	a0,a0,a1
    1804:	4aa0a223          	sw	a0,1188(ra)

00001808 <inst_298>:
    1808:	aaaab5b7          	lui	a1,0xaaaab
    180c:	aaa58593          	addi	a1,a1,-1366 # aaaaaaaa <_end+0xaaaa5fa6>
    1810:	55555537          	lui	a0,0x55555
    1814:	55450513          	addi	a0,a0,1364 # 55555554 <_end+0x55550a50>
    1818:	8d0d                	sub	a0,a0,a1
    181a:	4aa0a423          	sw	a0,1192(ra)

0000181e <inst_299>:
    181e:	00500593          	li	a1,5
    1822:	55555537          	lui	a0,0x55555
    1826:	55450513          	addi	a0,a0,1364 # 55555554 <_end+0x55550a50>
    182a:	8d0d                	sub	a0,a0,a1
    182c:	4aa0a623          	sw	a0,1196(ra)

00001830 <inst_300>:
    1830:	333335b7          	lui	a1,0x33333
    1834:	33358593          	addi	a1,a1,819 # 33333333 <_end+0x3332e82f>
    1838:	55555537          	lui	a0,0x55555
    183c:	55450513          	addi	a0,a0,1364 # 55555554 <_end+0x55550a50>
    1840:	8d0d                	sub	a0,a0,a1
    1842:	4aa0a823          	sw	a0,1200(ra)

00001846 <inst_301>:
    1846:	666665b7          	lui	a1,0x66666
    184a:	66658593          	addi	a1,a1,1638 # 66666666 <_end+0x66661b62>
    184e:	55555537          	lui	a0,0x55555
    1852:	55450513          	addi	a0,a0,1364 # 55555554 <_end+0x55550a50>
    1856:	8d0d                	sub	a0,a0,a1
    1858:	4aa0aa23          	sw	a0,1204(ra)

0000185c <inst_302>:
    185c:	ffff55b7          	lui	a1,0xffff5
    1860:	afc58593          	addi	a1,a1,-1284 # ffff4afc <_end+0xfffefff8>
    1864:	55555537          	lui	a0,0x55555
    1868:	55450513          	addi	a0,a0,1364 # 55555554 <_end+0x55550a50>
    186c:	8d0d                	sub	a0,a0,a1
    186e:	4aa0ac23          	sw	a0,1208(ra)

00001872 <inst_303>:
    1872:	0000b5b7          	lui	a1,0xb
    1876:	50458593          	addi	a1,a1,1284 # b504 <_end+0x6a00>
    187a:	55555537          	lui	a0,0x55555
    187e:	55450513          	addi	a0,a0,1364 # 55555554 <_end+0x55550a50>
    1882:	8d0d                	sub	a0,a0,a1
    1884:	4aa0ae23          	sw	a0,1212(ra)

00001888 <inst_304>:
    1888:	00200593          	li	a1,2
    188c:	55555537          	lui	a0,0x55555
    1890:	55450513          	addi	a0,a0,1364 # 55555554 <_end+0x55550a50>
    1894:	8d0d                	sub	a0,a0,a1
    1896:	4ca0a023          	sw	a0,1216(ra)

0000189a <inst_305>:
    189a:	555555b7          	lui	a1,0x55555
    189e:	55458593          	addi	a1,a1,1364 # 55555554 <_end+0x55550a50>
    18a2:	55555537          	lui	a0,0x55555
    18a6:	55450513          	addi	a0,a0,1364 # 55555554 <_end+0x55550a50>
    18aa:	8d0d                	sub	a0,a0,a1
    18ac:	4ca0a223          	sw	a0,1220(ra)

000018b0 <inst_306>:
    18b0:	00000593          	li	a1,0
    18b4:	55555537          	lui	a0,0x55555
    18b8:	55450513          	addi	a0,a0,1364 # 55555554 <_end+0x55550a50>
    18bc:	8d0d                	sub	a0,a0,a1
    18be:	4ca0a423          	sw	a0,1224(ra)

000018c2 <inst_307>:
    18c2:	00400593          	li	a1,4
    18c6:	55555537          	lui	a0,0x55555
    18ca:	55450513          	addi	a0,a0,1364 # 55555554 <_end+0x55550a50>
    18ce:	8d0d                	sub	a0,a0,a1
    18d0:	4ca0a623          	sw	a0,1228(ra)

000018d4 <inst_308>:
    18d4:	333335b7          	lui	a1,0x33333
    18d8:	33258593          	addi	a1,a1,818 # 33333332 <_end+0x3332e82e>
    18dc:	55555537          	lui	a0,0x55555
    18e0:	55450513          	addi	a0,a0,1364 # 55555554 <_end+0x55550a50>
    18e4:	8d0d                	sub	a0,a0,a1
    18e6:	4ca0a823          	sw	a0,1232(ra)

000018ea <inst_309>:
    18ea:	666665b7          	lui	a1,0x66666
    18ee:	66558593          	addi	a1,a1,1637 # 66666665 <_end+0x66661b61>
    18f2:	55555537          	lui	a0,0x55555
    18f6:	55450513          	addi	a0,a0,1364 # 55555554 <_end+0x55550a50>
    18fa:	8d0d                	sub	a0,a0,a1
    18fc:	4ca0aa23          	sw	a0,1236(ra)

00001900 <inst_310>:
    1900:	0000b5b7          	lui	a1,0xb
    1904:	50358593          	addi	a1,a1,1283 # b503 <_end+0x69ff>
    1908:	55555537          	lui	a0,0x55555
    190c:	55450513          	addi	a0,a0,1364 # 55555554 <_end+0x55550a50>
    1910:	8d0d                	sub	a0,a0,a1
    1912:	4ca0ac23          	sw	a0,1240(ra)

00001916 <inst_311>:
    1916:	555555b7          	lui	a1,0x55555
    191a:	55658593          	addi	a1,a1,1366 # 55555556 <_end+0x55550a52>
    191e:	55555537          	lui	a0,0x55555
    1922:	55450513          	addi	a0,a0,1364 # 55555554 <_end+0x55550a50>
    1926:	8d0d                	sub	a0,a0,a1
    1928:	4ca0ae23          	sw	a0,1244(ra)

0000192c <inst_312>:
    192c:	aaaab5b7          	lui	a1,0xaaaab
    1930:	aab58593          	addi	a1,a1,-1365 # aaaaaaab <_end+0xaaaa5fa7>
    1934:	55555537          	lui	a0,0x55555
    1938:	55450513          	addi	a0,a0,1364 # 55555554 <_end+0x55550a50>
    193c:	8d0d                	sub	a0,a0,a1
    193e:	4ea0a023          	sw	a0,1248(ra)

00001942 <inst_313>:
    1942:	00600593          	li	a1,6
    1946:	55555537          	lui	a0,0x55555
    194a:	55450513          	addi	a0,a0,1364 # 55555554 <_end+0x55550a50>
    194e:	8d0d                	sub	a0,a0,a1
    1950:	4ea0a223          	sw	a0,1252(ra)

00001954 <inst_314>:
    1954:	333335b7          	lui	a1,0x33333
    1958:	33458593          	addi	a1,a1,820 # 33333334 <_end+0x3332e830>
    195c:	55555537          	lui	a0,0x55555
    1960:	55450513          	addi	a0,a0,1364 # 55555554 <_end+0x55550a50>
    1964:	8d0d                	sub	a0,a0,a1
    1966:	4ea0a423          	sw	a0,1256(ra)

0000196a <inst_315>:
    196a:	666665b7          	lui	a1,0x66666
    196e:	66758593          	addi	a1,a1,1639 # 66666667 <_end+0x66661b63>
    1972:	55555537          	lui	a0,0x55555
    1976:	55450513          	addi	a0,a0,1364 # 55555554 <_end+0x55550a50>
    197a:	8d0d                	sub	a0,a0,a1
    197c:	4ea0a623          	sw	a0,1260(ra)

00001980 <inst_316>:
    1980:	ffff55b7          	lui	a1,0xffff5
    1984:	afd58593          	addi	a1,a1,-1283 # ffff4afd <_end+0xfffefff9>
    1988:	55555537          	lui	a0,0x55555
    198c:	55450513          	addi	a0,a0,1364 # 55555554 <_end+0x55550a50>
    1990:	8d0d                	sub	a0,a0,a1
    1992:	4ea0a823          	sw	a0,1264(ra)

00001996 <inst_317>:
    1996:	0000b5b7          	lui	a1,0xb
    199a:	50558593          	addi	a1,a1,1285 # b505 <_end+0x6a01>
    199e:	55555537          	lui	a0,0x55555
    19a2:	55450513          	addi	a0,a0,1364 # 55555554 <_end+0x55550a50>
    19a6:	8d0d                	sub	a0,a0,a1
    19a8:	4ea0aa23          	sw	a0,1268(ra)

000019ac <inst_318>:
    19ac:	00300593          	li	a1,3
    19b0:	00000513          	li	a0,0
    19b4:	8d0d                	sub	a0,a0,a1
    19b6:	4ea0ac23          	sw	a0,1272(ra)

000019ba <inst_319>:
    19ba:	555555b7          	lui	a1,0x55555
    19be:	55558593          	addi	a1,a1,1365 # 55555555 <_end+0x55550a51>
    19c2:	00000513          	li	a0,0
    19c6:	8d0d                	sub	a0,a0,a1
    19c8:	4ea0ae23          	sw	a0,1276(ra)

000019cc <inst_320>:
    19cc:	aaaab5b7          	lui	a1,0xaaaab
    19d0:	aaa58593          	addi	a1,a1,-1366 # aaaaaaaa <_end+0xaaaa5fa6>
    19d4:	00000513          	li	a0,0
    19d8:	8d0d                	sub	a0,a0,a1
    19da:	50a0a023          	sw	a0,1280(ra)

000019de <inst_321>:
    19de:	00500593          	li	a1,5
    19e2:	00000513          	li	a0,0
    19e6:	8d0d                	sub	a0,a0,a1
    19e8:	50a0a223          	sw	a0,1284(ra)

000019ec <inst_322>:
    19ec:	333335b7          	lui	a1,0x33333
    19f0:	33358593          	addi	a1,a1,819 # 33333333 <_end+0x3332e82f>
    19f4:	00000513          	li	a0,0
    19f8:	8d0d                	sub	a0,a0,a1
    19fa:	50a0a423          	sw	a0,1288(ra)

000019fe <inst_323>:
    19fe:	666665b7          	lui	a1,0x66666
    1a02:	66658593          	addi	a1,a1,1638 # 66666666 <_end+0x66661b62>
    1a06:	00000513          	li	a0,0
    1a0a:	8d0d                	sub	a0,a0,a1
    1a0c:	50a0a623          	sw	a0,1292(ra)

00001a10 <inst_324>:
    1a10:	ffff55b7          	lui	a1,0xffff5
    1a14:	afc58593          	addi	a1,a1,-1284 # ffff4afc <_end+0xfffefff8>
    1a18:	00000513          	li	a0,0
    1a1c:	8d0d                	sub	a0,a0,a1
    1a1e:	50a0a823          	sw	a0,1296(ra)

00001a22 <inst_325>:
    1a22:	ffff55b7          	lui	a1,0xffff5
    1a26:	afd58593          	addi	a1,a1,-1283 # ffff4afd <_end+0xfffefff9>
    1a2a:	aaaab537          	lui	a0,0xaaaab
    1a2e:	aab50513          	addi	a0,a0,-1365 # aaaaaaab <_end+0xaaaa5fa7>
    1a32:	8d0d                	sub	a0,a0,a1
    1a34:	50a0aa23          	sw	a0,1300(ra)

00001a38 <inst_326>:
    1a38:	0000b5b7          	lui	a1,0xb
    1a3c:	50558593          	addi	a1,a1,1285 # b505 <_end+0x6a01>
    1a40:	aaaab537          	lui	a0,0xaaaab
    1a44:	aab50513          	addi	a0,a0,-1365 # aaaaaaab <_end+0xaaaa5fa7>
    1a48:	8d0d                	sub	a0,a0,a1
    1a4a:	50a0ac23          	sw	a0,1304(ra)

00001a4e <inst_327>:
    1a4e:	00300593          	li	a1,3
    1a52:	00600513          	li	a0,6
    1a56:	8d0d                	sub	a0,a0,a1
    1a58:	50a0ae23          	sw	a0,1308(ra)

00001a5c <inst_328>:
    1a5c:	555555b7          	lui	a1,0x55555
    1a60:	55558593          	addi	a1,a1,1365 # 55555555 <_end+0x55550a51>
    1a64:	00600513          	li	a0,6
    1a68:	8d0d                	sub	a0,a0,a1
    1a6a:	52a0a023          	sw	a0,1312(ra)

00001a6e <inst_329>:
    1a6e:	aaaab5b7          	lui	a1,0xaaaab
    1a72:	aaa58593          	addi	a1,a1,-1366 # aaaaaaaa <_end+0xaaaa5fa6>
    1a76:	00600513          	li	a0,6
    1a7a:	8d0d                	sub	a0,a0,a1
    1a7c:	52a0a223          	sw	a0,1316(ra)

00001a80 <inst_330>:
    1a80:	00500593          	li	a1,5
    1a84:	00600513          	li	a0,6
    1a88:	8d0d                	sub	a0,a0,a1
    1a8a:	52a0a423          	sw	a0,1320(ra)

00001a8e <inst_331>:
    1a8e:	333335b7          	lui	a1,0x33333
    1a92:	33358593          	addi	a1,a1,819 # 33333333 <_end+0x3332e82f>
    1a96:	00600513          	li	a0,6
    1a9a:	8d0d                	sub	a0,a0,a1
    1a9c:	52a0a623          	sw	a0,1324(ra)

00001aa0 <inst_332>:
    1aa0:	666665b7          	lui	a1,0x66666
    1aa4:	66658593          	addi	a1,a1,1638 # 66666666 <_end+0x66661b62>
    1aa8:	00600513          	li	a0,6
    1aac:	8d0d                	sub	a0,a0,a1
    1aae:	52a0a823          	sw	a0,1328(ra)

00001ab2 <inst_333>:
    1ab2:	ffff55b7          	lui	a1,0xffff5
    1ab6:	afc58593          	addi	a1,a1,-1284 # ffff4afc <_end+0xfffefff8>
    1aba:	00600513          	li	a0,6
    1abe:	8d0d                	sub	a0,a0,a1
    1ac0:	52a0aa23          	sw	a0,1332(ra)

00001ac4 <inst_334>:
    1ac4:	0000b5b7          	lui	a1,0xb
    1ac8:	50458593          	addi	a1,a1,1284 # b504 <_end+0x6a00>
    1acc:	00600513          	li	a0,6
    1ad0:	8d0d                	sub	a0,a0,a1
    1ad2:	52a0ac23          	sw	a0,1336(ra)

00001ad6 <inst_335>:
    1ad6:	00200593          	li	a1,2
    1ada:	00600513          	li	a0,6
    1ade:	8d0d                	sub	a0,a0,a1
    1ae0:	52a0ae23          	sw	a0,1340(ra)

00001ae4 <inst_336>:
    1ae4:	555555b7          	lui	a1,0x55555
    1ae8:	55458593          	addi	a1,a1,1364 # 55555554 <_end+0x55550a50>
    1aec:	00600513          	li	a0,6
    1af0:	8d0d                	sub	a0,a0,a1
    1af2:	54a0a023          	sw	a0,1344(ra)

00001af6 <inst_337>:
    1af6:	00000593          	li	a1,0
    1afa:	00600513          	li	a0,6
    1afe:	8d0d                	sub	a0,a0,a1
    1b00:	54a0a223          	sw	a0,1348(ra)

00001b04 <inst_338>:
    1b04:	00400593          	li	a1,4
    1b08:	00600513          	li	a0,6
    1b0c:	8d0d                	sub	a0,a0,a1
    1b0e:	54a0a423          	sw	a0,1352(ra)

00001b12 <inst_339>:
    1b12:	333335b7          	lui	a1,0x33333
    1b16:	33258593          	addi	a1,a1,818 # 33333332 <_end+0x3332e82e>
    1b1a:	00600513          	li	a0,6
    1b1e:	8d0d                	sub	a0,a0,a1
    1b20:	54a0a623          	sw	a0,1356(ra)

00001b24 <inst_340>:
    1b24:	666665b7          	lui	a1,0x66666
    1b28:	66558593          	addi	a1,a1,1637 # 66666665 <_end+0x66661b61>
    1b2c:	00600513          	li	a0,6
    1b30:	8d0d                	sub	a0,a0,a1
    1b32:	54a0a823          	sw	a0,1360(ra)

00001b36 <inst_341>:
    1b36:	0000b5b7          	lui	a1,0xb
    1b3a:	50358593          	addi	a1,a1,1283 # b503 <_end+0x69ff>
    1b3e:	00600513          	li	a0,6
    1b42:	8d0d                	sub	a0,a0,a1
    1b44:	54a0aa23          	sw	a0,1364(ra)

00001b48 <inst_342>:
    1b48:	555555b7          	lui	a1,0x55555
    1b4c:	55658593          	addi	a1,a1,1366 # 55555556 <_end+0x55550a52>
    1b50:	00600513          	li	a0,6
    1b54:	8d0d                	sub	a0,a0,a1
    1b56:	54a0ac23          	sw	a0,1368(ra)

00001b5a <inst_343>:
    1b5a:	aaaab5b7          	lui	a1,0xaaaab
    1b5e:	aab58593          	addi	a1,a1,-1365 # aaaaaaab <_end+0xaaaa5fa7>
    1b62:	00600513          	li	a0,6
    1b66:	8d0d                	sub	a0,a0,a1
    1b68:	54a0ae23          	sw	a0,1372(ra)

00001b6c <inst_344>:
    1b6c:	00600593          	li	a1,6
    1b70:	00600513          	li	a0,6
    1b74:	8d0d                	sub	a0,a0,a1
    1b76:	56a0a023          	sw	a0,1376(ra)

00001b7a <inst_345>:
    1b7a:	333335b7          	lui	a1,0x33333
    1b7e:	33458593          	addi	a1,a1,820 # 33333334 <_end+0x3332e830>
    1b82:	00600513          	li	a0,6
    1b86:	8d0d                	sub	a0,a0,a1
    1b88:	56a0a223          	sw	a0,1380(ra)

00001b8c <inst_346>:
    1b8c:	666665b7          	lui	a1,0x66666
    1b90:	66758593          	addi	a1,a1,1639 # 66666667 <_end+0x66661b63>
    1b94:	00600513          	li	a0,6
    1b98:	8d0d                	sub	a0,a0,a1
    1b9a:	56a0a423          	sw	a0,1384(ra)

00001b9e <inst_347>:
    1b9e:	ffff55b7          	lui	a1,0xffff5
    1ba2:	afd58593          	addi	a1,a1,-1283 # ffff4afd <_end+0xfffefff9>
    1ba6:	00600513          	li	a0,6
    1baa:	8d0d                	sub	a0,a0,a1
    1bac:	56a0a623          	sw	a0,1388(ra)

00001bb0 <inst_348>:
    1bb0:	0000b5b7          	lui	a1,0xb
    1bb4:	50558593          	addi	a1,a1,1285 # b505 <_end+0x6a01>
    1bb8:	00600513          	li	a0,6
    1bbc:	8d0d                	sub	a0,a0,a1
    1bbe:	56a0a823          	sw	a0,1392(ra)

00001bc2 <inst_349>:
    1bc2:	00300593          	li	a1,3
    1bc6:	33333537          	lui	a0,0x33333
    1bca:	33450513          	addi	a0,a0,820 # 33333334 <_end+0x3332e830>
    1bce:	8d0d                	sub	a0,a0,a1
    1bd0:	56a0aa23          	sw	a0,1396(ra)

00001bd4 <inst_350>:
    1bd4:	555555b7          	lui	a1,0x55555
    1bd8:	55558593          	addi	a1,a1,1365 # 55555555 <_end+0x55550a51>
    1bdc:	33333537          	lui	a0,0x33333
    1be0:	33450513          	addi	a0,a0,820 # 33333334 <_end+0x3332e830>
    1be4:	8d0d                	sub	a0,a0,a1
    1be6:	56a0ac23          	sw	a0,1400(ra)

00001bea <inst_351>:
    1bea:	aaaab5b7          	lui	a1,0xaaaab
    1bee:	aaa58593          	addi	a1,a1,-1366 # aaaaaaaa <_end+0xaaaa5fa6>
    1bf2:	33333537          	lui	a0,0x33333
    1bf6:	33450513          	addi	a0,a0,820 # 33333334 <_end+0x3332e830>
    1bfa:	8d0d                	sub	a0,a0,a1
    1bfc:	56a0ae23          	sw	a0,1404(ra)

00001c00 <inst_352>:
    1c00:	00500593          	li	a1,5
    1c04:	33333537          	lui	a0,0x33333
    1c08:	33450513          	addi	a0,a0,820 # 33333334 <_end+0x3332e830>
    1c0c:	8d0d                	sub	a0,a0,a1
    1c0e:	58a0a023          	sw	a0,1408(ra)

00001c12 <inst_353>:
    1c12:	333335b7          	lui	a1,0x33333
    1c16:	33358593          	addi	a1,a1,819 # 33333333 <_end+0x3332e82f>
    1c1a:	33333537          	lui	a0,0x33333
    1c1e:	33450513          	addi	a0,a0,820 # 33333334 <_end+0x3332e830>
    1c22:	8d0d                	sub	a0,a0,a1
    1c24:	58a0a223          	sw	a0,1412(ra)

00001c28 <inst_354>:
    1c28:	666665b7          	lui	a1,0x66666
    1c2c:	66658593          	addi	a1,a1,1638 # 66666666 <_end+0x66661b62>
    1c30:	33333537          	lui	a0,0x33333
    1c34:	33450513          	addi	a0,a0,820 # 33333334 <_end+0x3332e830>
    1c38:	8d0d                	sub	a0,a0,a1
    1c3a:	58a0a423          	sw	a0,1416(ra)

00001c3e <inst_355>:
    1c3e:	ffff55b7          	lui	a1,0xffff5
    1c42:	afc58593          	addi	a1,a1,-1284 # ffff4afc <_end+0xfffefff8>
    1c46:	33333537          	lui	a0,0x33333
    1c4a:	33450513          	addi	a0,a0,820 # 33333334 <_end+0x3332e830>
    1c4e:	8d0d                	sub	a0,a0,a1
    1c50:	58a0a623          	sw	a0,1420(ra)

00001c54 <inst_356>:
    1c54:	0000b5b7          	lui	a1,0xb
    1c58:	50458593          	addi	a1,a1,1284 # b504 <_end+0x6a00>
    1c5c:	33333537          	lui	a0,0x33333
    1c60:	33450513          	addi	a0,a0,820 # 33333334 <_end+0x3332e830>
    1c64:	8d0d                	sub	a0,a0,a1
    1c66:	58a0a823          	sw	a0,1424(ra)

00001c6a <inst_357>:
    1c6a:	00200593          	li	a1,2
    1c6e:	33333537          	lui	a0,0x33333
    1c72:	33450513          	addi	a0,a0,820 # 33333334 <_end+0x3332e830>
    1c76:	8d0d                	sub	a0,a0,a1
    1c78:	58a0aa23          	sw	a0,1428(ra)

00001c7c <inst_358>:
    1c7c:	555555b7          	lui	a1,0x55555
    1c80:	55458593          	addi	a1,a1,1364 # 55555554 <_end+0x55550a50>
    1c84:	33333537          	lui	a0,0x33333
    1c88:	33450513          	addi	a0,a0,820 # 33333334 <_end+0x3332e830>
    1c8c:	8d0d                	sub	a0,a0,a1
    1c8e:	58a0ac23          	sw	a0,1432(ra)

00001c92 <inst_359>:
    1c92:	00000593          	li	a1,0
    1c96:	33333537          	lui	a0,0x33333
    1c9a:	33450513          	addi	a0,a0,820 # 33333334 <_end+0x3332e830>
    1c9e:	8d0d                	sub	a0,a0,a1
    1ca0:	58a0ae23          	sw	a0,1436(ra)

00001ca4 <inst_360>:
    1ca4:	00400593          	li	a1,4
    1ca8:	33333537          	lui	a0,0x33333
    1cac:	33450513          	addi	a0,a0,820 # 33333334 <_end+0x3332e830>
    1cb0:	8d0d                	sub	a0,a0,a1
    1cb2:	5aa0a023          	sw	a0,1440(ra)

00001cb6 <inst_361>:
    1cb6:	333335b7          	lui	a1,0x33333
    1cba:	33258593          	addi	a1,a1,818 # 33333332 <_end+0x3332e82e>
    1cbe:	33333537          	lui	a0,0x33333
    1cc2:	33450513          	addi	a0,a0,820 # 33333334 <_end+0x3332e830>
    1cc6:	8d0d                	sub	a0,a0,a1
    1cc8:	5aa0a223          	sw	a0,1444(ra)

00001ccc <inst_362>:
    1ccc:	666665b7          	lui	a1,0x66666
    1cd0:	66558593          	addi	a1,a1,1637 # 66666665 <_end+0x66661b61>
    1cd4:	33333537          	lui	a0,0x33333
    1cd8:	33450513          	addi	a0,a0,820 # 33333334 <_end+0x3332e830>
    1cdc:	8d0d                	sub	a0,a0,a1
    1cde:	5aa0a423          	sw	a0,1448(ra)

00001ce2 <inst_363>:
    1ce2:	0000b5b7          	lui	a1,0xb
    1ce6:	50358593          	addi	a1,a1,1283 # b503 <_end+0x69ff>
    1cea:	33333537          	lui	a0,0x33333
    1cee:	33450513          	addi	a0,a0,820 # 33333334 <_end+0x3332e830>
    1cf2:	8d0d                	sub	a0,a0,a1
    1cf4:	5aa0a623          	sw	a0,1452(ra)

00001cf8 <inst_364>:
    1cf8:	555555b7          	lui	a1,0x55555
    1cfc:	55658593          	addi	a1,a1,1366 # 55555556 <_end+0x55550a52>
    1d00:	33333537          	lui	a0,0x33333
    1d04:	33450513          	addi	a0,a0,820 # 33333334 <_end+0x3332e830>
    1d08:	8d0d                	sub	a0,a0,a1
    1d0a:	5aa0a823          	sw	a0,1456(ra)

00001d0e <inst_365>:
    1d0e:	aaaab5b7          	lui	a1,0xaaaab
    1d12:	aab58593          	addi	a1,a1,-1365 # aaaaaaab <_end+0xaaaa5fa7>
    1d16:	33333537          	lui	a0,0x33333
    1d1a:	33450513          	addi	a0,a0,820 # 33333334 <_end+0x3332e830>
    1d1e:	8d0d                	sub	a0,a0,a1
    1d20:	5aa0aa23          	sw	a0,1460(ra)

00001d24 <inst_366>:
    1d24:	00600593          	li	a1,6
    1d28:	33333537          	lui	a0,0x33333
    1d2c:	33450513          	addi	a0,a0,820 # 33333334 <_end+0x3332e830>
    1d30:	8d0d                	sub	a0,a0,a1
    1d32:	5aa0ac23          	sw	a0,1464(ra)

00001d36 <inst_367>:
    1d36:	333335b7          	lui	a1,0x33333
    1d3a:	33458593          	addi	a1,a1,820 # 33333334 <_end+0x3332e830>
    1d3e:	33333537          	lui	a0,0x33333
    1d42:	33450513          	addi	a0,a0,820 # 33333334 <_end+0x3332e830>
    1d46:	8d0d                	sub	a0,a0,a1
    1d48:	5aa0ae23          	sw	a0,1468(ra)

00001d4c <inst_368>:
    1d4c:	666665b7          	lui	a1,0x66666
    1d50:	66758593          	addi	a1,a1,1639 # 66666667 <_end+0x66661b63>
    1d54:	33333537          	lui	a0,0x33333
    1d58:	33450513          	addi	a0,a0,820 # 33333334 <_end+0x3332e830>
    1d5c:	8d0d                	sub	a0,a0,a1
    1d5e:	5ca0a023          	sw	a0,1472(ra)

00001d62 <inst_369>:
    1d62:	ffff55b7          	lui	a1,0xffff5
    1d66:	afd58593          	addi	a1,a1,-1283 # ffff4afd <_end+0xfffefff9>
    1d6a:	33333537          	lui	a0,0x33333
    1d6e:	33450513          	addi	a0,a0,820 # 33333334 <_end+0x3332e830>
    1d72:	8d0d                	sub	a0,a0,a1
    1d74:	5ca0a223          	sw	a0,1476(ra)

00001d78 <inst_370>:
    1d78:	0000b5b7          	lui	a1,0xb
    1d7c:	50558593          	addi	a1,a1,1285 # b505 <_end+0x6a01>
    1d80:	33333537          	lui	a0,0x33333
    1d84:	33450513          	addi	a0,a0,820 # 33333334 <_end+0x3332e830>
    1d88:	8d0d                	sub	a0,a0,a1
    1d8a:	5ca0a423          	sw	a0,1480(ra)

00001d8e <inst_371>:
    1d8e:	00300593          	li	a1,3
    1d92:	66666537          	lui	a0,0x66666
    1d96:	66750513          	addi	a0,a0,1639 # 66666667 <_end+0x66661b63>
    1d9a:	8d0d                	sub	a0,a0,a1
    1d9c:	5ca0a623          	sw	a0,1484(ra)

00001da0 <inst_372>:
    1da0:	555555b7          	lui	a1,0x55555
    1da4:	55558593          	addi	a1,a1,1365 # 55555555 <_end+0x55550a51>
    1da8:	66666537          	lui	a0,0x66666
    1dac:	66750513          	addi	a0,a0,1639 # 66666667 <_end+0x66661b63>
    1db0:	8d0d                	sub	a0,a0,a1
    1db2:	5ca0a823          	sw	a0,1488(ra)

00001db6 <inst_373>:
    1db6:	aaaab5b7          	lui	a1,0xaaaab
    1dba:	aaa58593          	addi	a1,a1,-1366 # aaaaaaaa <_end+0xaaaa5fa6>
    1dbe:	66666537          	lui	a0,0x66666
    1dc2:	66750513          	addi	a0,a0,1639 # 66666667 <_end+0x66661b63>
    1dc6:	8d0d                	sub	a0,a0,a1
    1dc8:	5ca0aa23          	sw	a0,1492(ra)

00001dcc <inst_374>:
    1dcc:	00500593          	li	a1,5
    1dd0:	66666537          	lui	a0,0x66666
    1dd4:	66750513          	addi	a0,a0,1639 # 66666667 <_end+0x66661b63>
    1dd8:	8d0d                	sub	a0,a0,a1
    1dda:	5ca0ac23          	sw	a0,1496(ra)

00001dde <inst_375>:
    1dde:	333335b7          	lui	a1,0x33333
    1de2:	33358593          	addi	a1,a1,819 # 33333333 <_end+0x3332e82f>
    1de6:	66666537          	lui	a0,0x66666
    1dea:	66750513          	addi	a0,a0,1639 # 66666667 <_end+0x66661b63>
    1dee:	8d0d                	sub	a0,a0,a1
    1df0:	5ca0ae23          	sw	a0,1500(ra)

00001df4 <inst_376>:
    1df4:	666665b7          	lui	a1,0x66666
    1df8:	66658593          	addi	a1,a1,1638 # 66666666 <_end+0x66661b62>
    1dfc:	66666537          	lui	a0,0x66666
    1e00:	66750513          	addi	a0,a0,1639 # 66666667 <_end+0x66661b63>
    1e04:	8d0d                	sub	a0,a0,a1
    1e06:	5ea0a023          	sw	a0,1504(ra)

00001e0a <inst_377>:
    1e0a:	ffff55b7          	lui	a1,0xffff5
    1e0e:	afc58593          	addi	a1,a1,-1284 # ffff4afc <_end+0xfffefff8>
    1e12:	66666537          	lui	a0,0x66666
    1e16:	66750513          	addi	a0,a0,1639 # 66666667 <_end+0x66661b63>
    1e1a:	8d0d                	sub	a0,a0,a1
    1e1c:	5ea0a223          	sw	a0,1508(ra)

00001e20 <inst_378>:
    1e20:	0000b5b7          	lui	a1,0xb
    1e24:	50458593          	addi	a1,a1,1284 # b504 <_end+0x6a00>
    1e28:	66666537          	lui	a0,0x66666
    1e2c:	66750513          	addi	a0,a0,1639 # 66666667 <_end+0x66661b63>
    1e30:	8d0d                	sub	a0,a0,a1
    1e32:	5ea0a423          	sw	a0,1512(ra)

00001e36 <inst_379>:
    1e36:	00200593          	li	a1,2
    1e3a:	66666537          	lui	a0,0x66666
    1e3e:	66750513          	addi	a0,a0,1639 # 66666667 <_end+0x66661b63>
    1e42:	8d0d                	sub	a0,a0,a1
    1e44:	5ea0a623          	sw	a0,1516(ra)

00001e48 <inst_380>:
    1e48:	555555b7          	lui	a1,0x55555
    1e4c:	55458593          	addi	a1,a1,1364 # 55555554 <_end+0x55550a50>
    1e50:	66666537          	lui	a0,0x66666
    1e54:	66750513          	addi	a0,a0,1639 # 66666667 <_end+0x66661b63>
    1e58:	8d0d                	sub	a0,a0,a1
    1e5a:	5ea0a823          	sw	a0,1520(ra)

00001e5e <inst_381>:
    1e5e:	00000593          	li	a1,0
    1e62:	66666537          	lui	a0,0x66666
    1e66:	66750513          	addi	a0,a0,1639 # 66666667 <_end+0x66661b63>
    1e6a:	8d0d                	sub	a0,a0,a1
    1e6c:	5ea0aa23          	sw	a0,1524(ra)

00001e70 <inst_382>:
    1e70:	00400593          	li	a1,4
    1e74:	66666537          	lui	a0,0x66666
    1e78:	66750513          	addi	a0,a0,1639 # 66666667 <_end+0x66661b63>
    1e7c:	8d0d                	sub	a0,a0,a1
    1e7e:	5ea0ac23          	sw	a0,1528(ra)

00001e82 <inst_383>:
    1e82:	333335b7          	lui	a1,0x33333
    1e86:	33258593          	addi	a1,a1,818 # 33333332 <_end+0x3332e82e>
    1e8a:	66666537          	lui	a0,0x66666
    1e8e:	66750513          	addi	a0,a0,1639 # 66666667 <_end+0x66661b63>
    1e92:	8d0d                	sub	a0,a0,a1
    1e94:	5ea0ae23          	sw	a0,1532(ra)

00001e98 <inst_384>:
    1e98:	666665b7          	lui	a1,0x66666
    1e9c:	66558593          	addi	a1,a1,1637 # 66666665 <_end+0x66661b61>
    1ea0:	66666537          	lui	a0,0x66666
    1ea4:	66750513          	addi	a0,a0,1639 # 66666667 <_end+0x66661b63>
    1ea8:	8d0d                	sub	a0,a0,a1
    1eaa:	60a0a023          	sw	a0,1536(ra)

00001eae <inst_385>:
    1eae:	0000b5b7          	lui	a1,0xb
    1eb2:	50358593          	addi	a1,a1,1283 # b503 <_end+0x69ff>
    1eb6:	66666537          	lui	a0,0x66666
    1eba:	66750513          	addi	a0,a0,1639 # 66666667 <_end+0x66661b63>
    1ebe:	8d0d                	sub	a0,a0,a1
    1ec0:	60a0a223          	sw	a0,1540(ra)

00001ec4 <inst_386>:
    1ec4:	555555b7          	lui	a1,0x55555
    1ec8:	55658593          	addi	a1,a1,1366 # 55555556 <_end+0x55550a52>
    1ecc:	66666537          	lui	a0,0x66666
    1ed0:	66750513          	addi	a0,a0,1639 # 66666667 <_end+0x66661b63>
    1ed4:	8d0d                	sub	a0,a0,a1
    1ed6:	60a0a423          	sw	a0,1544(ra)

00001eda <inst_387>:
    1eda:	aaaab5b7          	lui	a1,0xaaaab
    1ede:	aab58593          	addi	a1,a1,-1365 # aaaaaaab <_end+0xaaaa5fa7>
    1ee2:	66666537          	lui	a0,0x66666
    1ee6:	66750513          	addi	a0,a0,1639 # 66666667 <_end+0x66661b63>
    1eea:	8d0d                	sub	a0,a0,a1
    1eec:	60a0a623          	sw	a0,1548(ra)

00001ef0 <inst_388>:
    1ef0:	00600593          	li	a1,6
    1ef4:	66666537          	lui	a0,0x66666
    1ef8:	66750513          	addi	a0,a0,1639 # 66666667 <_end+0x66661b63>
    1efc:	8d0d                	sub	a0,a0,a1
    1efe:	60a0a823          	sw	a0,1552(ra)

00001f02 <inst_389>:
    1f02:	333335b7          	lui	a1,0x33333
    1f06:	33458593          	addi	a1,a1,820 # 33333334 <_end+0x3332e830>
    1f0a:	66666537          	lui	a0,0x66666
    1f0e:	66750513          	addi	a0,a0,1639 # 66666667 <_end+0x66661b63>
    1f12:	8d0d                	sub	a0,a0,a1
    1f14:	60a0aa23          	sw	a0,1556(ra)

00001f18 <inst_390>:
    1f18:	666665b7          	lui	a1,0x66666
    1f1c:	66758593          	addi	a1,a1,1639 # 66666667 <_end+0x66661b63>
    1f20:	66666537          	lui	a0,0x66666
    1f24:	66750513          	addi	a0,a0,1639 # 66666667 <_end+0x66661b63>
    1f28:	8d0d                	sub	a0,a0,a1
    1f2a:	60a0ac23          	sw	a0,1560(ra)

00001f2e <inst_391>:
    1f2e:	ffff55b7          	lui	a1,0xffff5
    1f32:	afd58593          	addi	a1,a1,-1283 # ffff4afd <_end+0xfffefff9>
    1f36:	66666537          	lui	a0,0x66666
    1f3a:	66750513          	addi	a0,a0,1639 # 66666667 <_end+0x66661b63>
    1f3e:	8d0d                	sub	a0,a0,a1
    1f40:	60a0ae23          	sw	a0,1564(ra)

00001f44 <inst_392>:
    1f44:	0000b5b7          	lui	a1,0xb
    1f48:	50558593          	addi	a1,a1,1285 # b505 <_end+0x6a01>
    1f4c:	66666537          	lui	a0,0x66666
    1f50:	66750513          	addi	a0,a0,1639 # 66666667 <_end+0x66661b63>
    1f54:	8d0d                	sub	a0,a0,a1
    1f56:	62a0a023          	sw	a0,1568(ra)

00001f5a <inst_393>:
    1f5a:	00300593          	li	a1,3
    1f5e:	ffff5537          	lui	a0,0xffff5
    1f62:	afd50513          	addi	a0,a0,-1283 # ffff4afd <_end+0xfffefff9>
    1f66:	8d0d                	sub	a0,a0,a1
    1f68:	62a0a223          	sw	a0,1572(ra)

00001f6c <inst_394>:
    1f6c:	555555b7          	lui	a1,0x55555
    1f70:	55558593          	addi	a1,a1,1365 # 55555555 <_end+0x55550a51>
    1f74:	ffff5537          	lui	a0,0xffff5
    1f78:	afd50513          	addi	a0,a0,-1283 # ffff4afd <_end+0xfffefff9>
    1f7c:	8d0d                	sub	a0,a0,a1
    1f7e:	62a0a423          	sw	a0,1576(ra)

00001f82 <inst_395>:
    1f82:	00500593          	li	a1,5
    1f86:	ffff5537          	lui	a0,0xffff5
    1f8a:	afd50513          	addi	a0,a0,-1283 # ffff4afd <_end+0xfffefff9>
    1f8e:	8d0d                	sub	a0,a0,a1
    1f90:	62a0a623          	sw	a0,1580(ra)

00001f94 <inst_396>:
    1f94:	333335b7          	lui	a1,0x33333
    1f98:	33358593          	addi	a1,a1,819 # 33333333 <_end+0x3332e82f>
    1f9c:	ffff5537          	lui	a0,0xffff5
    1fa0:	afd50513          	addi	a0,a0,-1283 # ffff4afd <_end+0xfffefff9>
    1fa4:	8d0d                	sub	a0,a0,a1
    1fa6:	62a0a823          	sw	a0,1584(ra)

00001faa <inst_397>:
    1faa:	666665b7          	lui	a1,0x66666
    1fae:	66658593          	addi	a1,a1,1638 # 66666666 <_end+0x66661b62>
    1fb2:	ffff5537          	lui	a0,0xffff5
    1fb6:	afd50513          	addi	a0,a0,-1283 # ffff4afd <_end+0xfffefff9>
    1fba:	8d0d                	sub	a0,a0,a1
    1fbc:	62a0aa23          	sw	a0,1588(ra)

00001fc0 <inst_398>:
    1fc0:	ffff55b7          	lui	a1,0xffff5
    1fc4:	afc58593          	addi	a1,a1,-1284 # ffff4afc <_end+0xfffefff8>
    1fc8:	ffff5537          	lui	a0,0xffff5
    1fcc:	afd50513          	addi	a0,a0,-1283 # ffff4afd <_end+0xfffefff9>
    1fd0:	8d0d                	sub	a0,a0,a1
    1fd2:	62a0ac23          	sw	a0,1592(ra)

00001fd6 <inst_399>:
    1fd6:	0000b5b7          	lui	a1,0xb
    1fda:	50458593          	addi	a1,a1,1284 # b504 <_end+0x6a00>
    1fde:	ffff5537          	lui	a0,0xffff5
    1fe2:	afd50513          	addi	a0,a0,-1283 # ffff4afd <_end+0xfffefff9>
    1fe6:	8d0d                	sub	a0,a0,a1
    1fe8:	62a0ae23          	sw	a0,1596(ra)

00001fec <inst_400>:
    1fec:	00200593          	li	a1,2
    1ff0:	ffff5537          	lui	a0,0xffff5
    1ff4:	afd50513          	addi	a0,a0,-1283 # ffff4afd <_end+0xfffefff9>
    1ff8:	8d0d                	sub	a0,a0,a1
    1ffa:	64a0a023          	sw	a0,1600(ra)

00001ffe <inst_401>:
    1ffe:	555555b7          	lui	a1,0x55555
    2002:	55458593          	addi	a1,a1,1364 # 55555554 <_end+0x55550a50>
    2006:	ffff5537          	lui	a0,0xffff5
    200a:	afd50513          	addi	a0,a0,-1283 # ffff4afd <_end+0xfffefff9>
    200e:	8d0d                	sub	a0,a0,a1
    2010:	64a0a223          	sw	a0,1604(ra)

00002014 <inst_402>:
    2014:	00000593          	li	a1,0
    2018:	ffff5537          	lui	a0,0xffff5
    201c:	afd50513          	addi	a0,a0,-1283 # ffff4afd <_end+0xfffefff9>
    2020:	8d0d                	sub	a0,a0,a1
    2022:	64a0a423          	sw	a0,1608(ra)

00002026 <inst_403>:
    2026:	00400593          	li	a1,4
    202a:	ffff5537          	lui	a0,0xffff5
    202e:	afd50513          	addi	a0,a0,-1283 # ffff4afd <_end+0xfffefff9>
    2032:	8d0d                	sub	a0,a0,a1
    2034:	64a0a623          	sw	a0,1612(ra)

00002038 <inst_404>:
    2038:	333335b7          	lui	a1,0x33333
    203c:	33258593          	addi	a1,a1,818 # 33333332 <_end+0x3332e82e>
    2040:	ffff5537          	lui	a0,0xffff5
    2044:	afd50513          	addi	a0,a0,-1283 # ffff4afd <_end+0xfffefff9>
    2048:	8d0d                	sub	a0,a0,a1
    204a:	64a0a823          	sw	a0,1616(ra)

0000204e <inst_405>:
    204e:	666665b7          	lui	a1,0x66666
    2052:	66558593          	addi	a1,a1,1637 # 66666665 <_end+0x66661b61>
    2056:	ffff5537          	lui	a0,0xffff5
    205a:	afd50513          	addi	a0,a0,-1283 # ffff4afd <_end+0xfffefff9>
    205e:	8d0d                	sub	a0,a0,a1
    2060:	64a0aa23          	sw	a0,1620(ra)

00002064 <inst_406>:
    2064:	0000b5b7          	lui	a1,0xb
    2068:	50358593          	addi	a1,a1,1283 # b503 <_end+0x69ff>
    206c:	ffff5537          	lui	a0,0xffff5
    2070:	afd50513          	addi	a0,a0,-1283 # ffff4afd <_end+0xfffefff9>
    2074:	8d0d                	sub	a0,a0,a1
    2076:	64a0ac23          	sw	a0,1624(ra)

0000207a <inst_407>:
    207a:	555555b7          	lui	a1,0x55555
    207e:	55658593          	addi	a1,a1,1366 # 55555556 <_end+0x55550a52>
    2082:	ffff5537          	lui	a0,0xffff5
    2086:	afd50513          	addi	a0,a0,-1283 # ffff4afd <_end+0xfffefff9>
    208a:	8d0d                	sub	a0,a0,a1
    208c:	64a0ae23          	sw	a0,1628(ra)

00002090 <inst_408>:
    2090:	aaaab5b7          	lui	a1,0xaaaab
    2094:	aab58593          	addi	a1,a1,-1365 # aaaaaaab <_end+0xaaaa5fa7>
    2098:	ffff5537          	lui	a0,0xffff5
    209c:	afd50513          	addi	a0,a0,-1283 # ffff4afd <_end+0xfffefff9>
    20a0:	8d0d                	sub	a0,a0,a1
    20a2:	66a0a023          	sw	a0,1632(ra)

000020a6 <inst_409>:
    20a6:	00600593          	li	a1,6
    20aa:	ffff5537          	lui	a0,0xffff5
    20ae:	afd50513          	addi	a0,a0,-1283 # ffff4afd <_end+0xfffefff9>
    20b2:	8d0d                	sub	a0,a0,a1
    20b4:	66a0a223          	sw	a0,1636(ra)

000020b8 <inst_410>:
    20b8:	333335b7          	lui	a1,0x33333
    20bc:	33458593          	addi	a1,a1,820 # 33333334 <_end+0x3332e830>
    20c0:	ffff5537          	lui	a0,0xffff5
    20c4:	afd50513          	addi	a0,a0,-1283 # ffff4afd <_end+0xfffefff9>
    20c8:	8d0d                	sub	a0,a0,a1
    20ca:	66a0a423          	sw	a0,1640(ra)

000020ce <inst_411>:
    20ce:	666665b7          	lui	a1,0x66666
    20d2:	66758593          	addi	a1,a1,1639 # 66666667 <_end+0x66661b63>
    20d6:	ffff5537          	lui	a0,0xffff5
    20da:	afd50513          	addi	a0,a0,-1283 # ffff4afd <_end+0xfffefff9>
    20de:	8d0d                	sub	a0,a0,a1
    20e0:	66a0a623          	sw	a0,1644(ra)

000020e4 <inst_412>:
    20e4:	ffff55b7          	lui	a1,0xffff5
    20e8:	afd58593          	addi	a1,a1,-1283 # ffff4afd <_end+0xfffefff9>
    20ec:	ffff5537          	lui	a0,0xffff5
    20f0:	afd50513          	addi	a0,a0,-1283 # ffff4afd <_end+0xfffefff9>
    20f4:	8d0d                	sub	a0,a0,a1
    20f6:	66a0a823          	sw	a0,1648(ra)

000020fa <inst_413>:
    20fa:	0000b5b7          	lui	a1,0xb
    20fe:	50558593          	addi	a1,a1,1285 # b505 <_end+0x6a01>
    2102:	ffff5537          	lui	a0,0xffff5
    2106:	afd50513          	addi	a0,a0,-1283 # ffff4afd <_end+0xfffefff9>
    210a:	8d0d                	sub	a0,a0,a1
    210c:	66a0aa23          	sw	a0,1652(ra)

00002110 <inst_414>:
    2110:	00300593          	li	a1,3
    2114:	0000b537          	lui	a0,0xb
    2118:	50550513          	addi	a0,a0,1285 # b505 <_end+0x6a01>
    211c:	8d0d                	sub	a0,a0,a1
    211e:	66a0ac23          	sw	a0,1656(ra)

00002122 <inst_415>:
    2122:	555555b7          	lui	a1,0x55555
    2126:	55558593          	addi	a1,a1,1365 # 55555555 <_end+0x55550a51>
    212a:	0000b537          	lui	a0,0xb
    212e:	50550513          	addi	a0,a0,1285 # b505 <_end+0x6a01>
    2132:	8d0d                	sub	a0,a0,a1
    2134:	66a0ae23          	sw	a0,1660(ra)

00002138 <inst_416>:
    2138:	aaaab5b7          	lui	a1,0xaaaab
    213c:	aaa58593          	addi	a1,a1,-1366 # aaaaaaaa <_end+0xaaaa5fa6>
    2140:	0000b537          	lui	a0,0xb
    2144:	50550513          	addi	a0,a0,1285 # b505 <_end+0x6a01>
    2148:	8d0d                	sub	a0,a0,a1
    214a:	68a0a023          	sw	a0,1664(ra)

0000214e <inst_417>:
    214e:	00500593          	li	a1,5
    2152:	0000b537          	lui	a0,0xb
    2156:	50550513          	addi	a0,a0,1285 # b505 <_end+0x6a01>
    215a:	8d0d                	sub	a0,a0,a1
    215c:	68a0a223          	sw	a0,1668(ra)

00002160 <inst_418>:
    2160:	333335b7          	lui	a1,0x33333
    2164:	33358593          	addi	a1,a1,819 # 33333333 <_end+0x3332e82f>
    2168:	0000b537          	lui	a0,0xb
    216c:	50550513          	addi	a0,a0,1285 # b505 <_end+0x6a01>
    2170:	8d0d                	sub	a0,a0,a1
    2172:	68a0a423          	sw	a0,1672(ra)

00002176 <inst_419>:
    2176:	666665b7          	lui	a1,0x66666
    217a:	66658593          	addi	a1,a1,1638 # 66666666 <_end+0x66661b62>
    217e:	0000b537          	lui	a0,0xb
    2182:	50550513          	addi	a0,a0,1285 # b505 <_end+0x6a01>
    2186:	8d0d                	sub	a0,a0,a1
    2188:	68a0a623          	sw	a0,1676(ra)

0000218c <inst_420>:
    218c:	ffff55b7          	lui	a1,0xffff5
    2190:	afc58593          	addi	a1,a1,-1284 # ffff4afc <_end+0xfffefff8>
    2194:	0000b537          	lui	a0,0xb
    2198:	50550513          	addi	a0,a0,1285 # b505 <_end+0x6a01>
    219c:	8d0d                	sub	a0,a0,a1
    219e:	68a0a823          	sw	a0,1680(ra)

000021a2 <inst_421>:
    21a2:	0000b5b7          	lui	a1,0xb
    21a6:	50458593          	addi	a1,a1,1284 # b504 <_end+0x6a00>
    21aa:	0000b537          	lui	a0,0xb
    21ae:	50550513          	addi	a0,a0,1285 # b505 <_end+0x6a01>
    21b2:	8d0d                	sub	a0,a0,a1
    21b4:	68a0aa23          	sw	a0,1684(ra)

000021b8 <inst_422>:
    21b8:	00200593          	li	a1,2
    21bc:	0000b537          	lui	a0,0xb
    21c0:	50550513          	addi	a0,a0,1285 # b505 <_end+0x6a01>
    21c4:	8d0d                	sub	a0,a0,a1
    21c6:	68a0ac23          	sw	a0,1688(ra)

000021ca <inst_423>:
    21ca:	555555b7          	lui	a1,0x55555
    21ce:	55458593          	addi	a1,a1,1364 # 55555554 <_end+0x55550a50>
    21d2:	0000b537          	lui	a0,0xb
    21d6:	50550513          	addi	a0,a0,1285 # b505 <_end+0x6a01>
    21da:	8d0d                	sub	a0,a0,a1
    21dc:	68a0ae23          	sw	a0,1692(ra)

000021e0 <inst_424>:
    21e0:	00000593          	li	a1,0
    21e4:	0000b537          	lui	a0,0xb
    21e8:	50550513          	addi	a0,a0,1285 # b505 <_end+0x6a01>
    21ec:	8d0d                	sub	a0,a0,a1
    21ee:	6aa0a023          	sw	a0,1696(ra)

000021f2 <inst_425>:
    21f2:	00400593          	li	a1,4
    21f6:	0000b537          	lui	a0,0xb
    21fa:	50550513          	addi	a0,a0,1285 # b505 <_end+0x6a01>
    21fe:	8d0d                	sub	a0,a0,a1
    2200:	6aa0a223          	sw	a0,1700(ra)

00002204 <inst_426>:
    2204:	333335b7          	lui	a1,0x33333
    2208:	33258593          	addi	a1,a1,818 # 33333332 <_end+0x3332e82e>
    220c:	0000b537          	lui	a0,0xb
    2210:	50550513          	addi	a0,a0,1285 # b505 <_end+0x6a01>
    2214:	8d0d                	sub	a0,a0,a1
    2216:	6aa0a423          	sw	a0,1704(ra)

0000221a <inst_427>:
    221a:	666665b7          	lui	a1,0x66666
    221e:	66558593          	addi	a1,a1,1637 # 66666665 <_end+0x66661b61>
    2222:	0000b537          	lui	a0,0xb
    2226:	50550513          	addi	a0,a0,1285 # b505 <_end+0x6a01>
    222a:	8d0d                	sub	a0,a0,a1
    222c:	6aa0a623          	sw	a0,1708(ra)

00002230 <inst_428>:
    2230:	0000b5b7          	lui	a1,0xb
    2234:	50358593          	addi	a1,a1,1283 # b503 <_end+0x69ff>
    2238:	0000b537          	lui	a0,0xb
    223c:	50550513          	addi	a0,a0,1285 # b505 <_end+0x6a01>
    2240:	8d0d                	sub	a0,a0,a1
    2242:	6aa0a823          	sw	a0,1712(ra)

00002246 <inst_429>:
    2246:	555555b7          	lui	a1,0x55555
    224a:	55658593          	addi	a1,a1,1366 # 55555556 <_end+0x55550a52>
    224e:	0000b537          	lui	a0,0xb
    2252:	50550513          	addi	a0,a0,1285 # b505 <_end+0x6a01>
    2256:	8d0d                	sub	a0,a0,a1
    2258:	6aa0aa23          	sw	a0,1716(ra)

0000225c <inst_430>:
    225c:	aaaab5b7          	lui	a1,0xaaaab
    2260:	aab58593          	addi	a1,a1,-1365 # aaaaaaab <_end+0xaaaa5fa7>
    2264:	0000b537          	lui	a0,0xb
    2268:	50550513          	addi	a0,a0,1285 # b505 <_end+0x6a01>
    226c:	8d0d                	sub	a0,a0,a1
    226e:	6aa0ac23          	sw	a0,1720(ra)

00002272 <inst_431>:
    2272:	00600593          	li	a1,6
    2276:	0000b537          	lui	a0,0xb
    227a:	50550513          	addi	a0,a0,1285 # b505 <_end+0x6a01>
    227e:	8d0d                	sub	a0,a0,a1
    2280:	6aa0ae23          	sw	a0,1724(ra)

00002284 <inst_432>:
    2284:	333335b7          	lui	a1,0x33333
    2288:	33458593          	addi	a1,a1,820 # 33333334 <_end+0x3332e830>
    228c:	0000b537          	lui	a0,0xb
    2290:	50550513          	addi	a0,a0,1285 # b505 <_end+0x6a01>
    2294:	8d0d                	sub	a0,a0,a1
    2296:	6ca0a023          	sw	a0,1728(ra)

0000229a <inst_433>:
    229a:	666665b7          	lui	a1,0x66666
    229e:	66758593          	addi	a1,a1,1639 # 66666667 <_end+0x66661b63>
    22a2:	0000b537          	lui	a0,0xb
    22a6:	50550513          	addi	a0,a0,1285 # b505 <_end+0x6a01>
    22aa:	8d0d                	sub	a0,a0,a1
    22ac:	6ca0a223          	sw	a0,1732(ra)

000022b0 <inst_434>:
    22b0:	ffff55b7          	lui	a1,0xffff5
    22b4:	afd58593          	addi	a1,a1,-1283 # ffff4afd <_end+0xfffefff9>
    22b8:	0000b537          	lui	a0,0xb
    22bc:	50550513          	addi	a0,a0,1285 # b505 <_end+0x6a01>
    22c0:	8d0d                	sub	a0,a0,a1
    22c2:	6ca0a423          	sw	a0,1736(ra)

000022c6 <inst_435>:
    22c6:	0000b5b7          	lui	a1,0xb
    22ca:	50558593          	addi	a1,a1,1285 # b505 <_end+0x6a01>
    22ce:	0000b537          	lui	a0,0xb
    22d2:	50550513          	addi	a0,a0,1285 # b505 <_end+0x6a01>
    22d6:	8d0d                	sub	a0,a0,a1
    22d8:	6ca0a623          	sw	a0,1740(ra)

000022dc <inst_436>:
    22dc:	0000b5b7          	lui	a1,0xb
    22e0:	50458593          	addi	a1,a1,1284 # b504 <_end+0x6a00>
    22e4:	00000513          	li	a0,0
    22e8:	8d0d                	sub	a0,a0,a1
    22ea:	6ca0a823          	sw	a0,1744(ra)

000022ee <inst_437>:
    22ee:	00200593          	li	a1,2
    22f2:	00000513          	li	a0,0
    22f6:	8d0d                	sub	a0,a0,a1
    22f8:	6ca0aa23          	sw	a0,1748(ra)

000022fc <inst_438>:
    22fc:	555555b7          	lui	a1,0x55555
    2300:	55458593          	addi	a1,a1,1364 # 55555554 <_end+0x55550a50>
    2304:	00000513          	li	a0,0
    2308:	8d0d                	sub	a0,a0,a1
    230a:	6ca0ac23          	sw	a0,1752(ra)

0000230e <inst_439>:
    230e:	00000593          	li	a1,0
    2312:	00000513          	li	a0,0
    2316:	8d0d                	sub	a0,a0,a1
    2318:	6ca0ae23          	sw	a0,1756(ra)

0000231c <inst_440>:
    231c:	00400593          	li	a1,4
    2320:	00000513          	li	a0,0
    2324:	8d0d                	sub	a0,a0,a1
    2326:	6ea0a023          	sw	a0,1760(ra)

0000232a <inst_441>:
    232a:	333335b7          	lui	a1,0x33333
    232e:	33258593          	addi	a1,a1,818 # 33333332 <_end+0x3332e82e>
    2332:	00000513          	li	a0,0
    2336:	8d0d                	sub	a0,a0,a1
    2338:	6ea0a223          	sw	a0,1764(ra)

0000233c <inst_442>:
    233c:	666665b7          	lui	a1,0x66666
    2340:	66558593          	addi	a1,a1,1637 # 66666665 <_end+0x66661b61>
    2344:	00000513          	li	a0,0
    2348:	8d0d                	sub	a0,a0,a1
    234a:	6ea0a423          	sw	a0,1768(ra)

0000234e <inst_443>:
    234e:	0000b5b7          	lui	a1,0xb
    2352:	50358593          	addi	a1,a1,1283 # b503 <_end+0x69ff>
    2356:	00000513          	li	a0,0
    235a:	8d0d                	sub	a0,a0,a1
    235c:	6ea0a623          	sw	a0,1772(ra)

00002360 <inst_444>:
    2360:	555555b7          	lui	a1,0x55555
    2364:	55658593          	addi	a1,a1,1366 # 55555556 <_end+0x55550a52>
    2368:	00000513          	li	a0,0
    236c:	8d0d                	sub	a0,a0,a1
    236e:	6ea0a823          	sw	a0,1776(ra)

00002372 <inst_445>:
    2372:	aaaab5b7          	lui	a1,0xaaaab
    2376:	aab58593          	addi	a1,a1,-1365 # aaaaaaab <_end+0xaaaa5fa7>
    237a:	00000513          	li	a0,0
    237e:	8d0d                	sub	a0,a0,a1
    2380:	6ea0aa23          	sw	a0,1780(ra)

00002384 <inst_446>:
    2384:	00600593          	li	a1,6
    2388:	00000513          	li	a0,0
    238c:	8d0d                	sub	a0,a0,a1
    238e:	6ea0ac23          	sw	a0,1784(ra)

00002392 <inst_447>:
    2392:	333335b7          	lui	a1,0x33333
    2396:	33458593          	addi	a1,a1,820 # 33333334 <_end+0x3332e830>
    239a:	00000513          	li	a0,0
    239e:	8d0d                	sub	a0,a0,a1
    23a0:	6ea0ae23          	sw	a0,1788(ra)

000023a4 <inst_448>:
    23a4:	666665b7          	lui	a1,0x66666
    23a8:	66758593          	addi	a1,a1,1639 # 66666667 <_end+0x66661b63>
    23ac:	00000513          	li	a0,0
    23b0:	8d0d                	sub	a0,a0,a1
    23b2:	70a0a023          	sw	a0,1792(ra)

000023b6 <inst_449>:
    23b6:	ffff55b7          	lui	a1,0xffff5
    23ba:	afd58593          	addi	a1,a1,-1283 # ffff4afd <_end+0xfffefff9>
    23be:	00000513          	li	a0,0
    23c2:	8d0d                	sub	a0,a0,a1
    23c4:	70a0a223          	sw	a0,1796(ra)

000023c8 <inst_450>:
    23c8:	0000b5b7          	lui	a1,0xb
    23cc:	50558593          	addi	a1,a1,1285 # b505 <_end+0x6a01>
    23d0:	00000513          	li	a0,0
    23d4:	8d0d                	sub	a0,a0,a1
    23d6:	70a0a423          	sw	a0,1800(ra)

000023da <inst_451>:
    23da:	00300593          	li	a1,3
    23de:	00400513          	li	a0,4
    23e2:	8d0d                	sub	a0,a0,a1
    23e4:	70a0a623          	sw	a0,1804(ra)

000023e8 <inst_452>:
    23e8:	555555b7          	lui	a1,0x55555
    23ec:	55558593          	addi	a1,a1,1365 # 55555555 <_end+0x55550a51>
    23f0:	00400513          	li	a0,4
    23f4:	8d0d                	sub	a0,a0,a1
    23f6:	70a0a823          	sw	a0,1808(ra)

000023fa <inst_453>:
    23fa:	aaaab5b7          	lui	a1,0xaaaab
    23fe:	aaa58593          	addi	a1,a1,-1366 # aaaaaaaa <_end+0xaaaa5fa6>
    2402:	00400513          	li	a0,4
    2406:	8d0d                	sub	a0,a0,a1
    2408:	70a0aa23          	sw	a0,1812(ra)

0000240c <inst_454>:
    240c:	00500593          	li	a1,5
    2410:	00400513          	li	a0,4
    2414:	8d0d                	sub	a0,a0,a1
    2416:	70a0ac23          	sw	a0,1816(ra)

0000241a <inst_455>:
    241a:	333335b7          	lui	a1,0x33333
    241e:	33358593          	addi	a1,a1,819 # 33333333 <_end+0x3332e82f>
    2422:	00400513          	li	a0,4
    2426:	8d0d                	sub	a0,a0,a1
    2428:	70a0ae23          	sw	a0,1820(ra)

0000242c <inst_456>:
    242c:	666665b7          	lui	a1,0x66666
    2430:	66658593          	addi	a1,a1,1638 # 66666666 <_end+0x66661b62>
    2434:	00400513          	li	a0,4
    2438:	8d0d                	sub	a0,a0,a1
    243a:	72a0a023          	sw	a0,1824(ra)

0000243e <inst_457>:
    243e:	ffff55b7          	lui	a1,0xffff5
    2442:	afc58593          	addi	a1,a1,-1284 # ffff4afc <_end+0xfffefff8>
    2446:	00400513          	li	a0,4
    244a:	8d0d                	sub	a0,a0,a1
    244c:	72a0a223          	sw	a0,1828(ra)

00002450 <inst_458>:
    2450:	0000b5b7          	lui	a1,0xb
    2454:	50458593          	addi	a1,a1,1284 # b504 <_end+0x6a00>
    2458:	00400513          	li	a0,4
    245c:	8d0d                	sub	a0,a0,a1
    245e:	72a0a423          	sw	a0,1832(ra)

00002462 <inst_459>:
    2462:	00200593          	li	a1,2
    2466:	00400513          	li	a0,4
    246a:	8d0d                	sub	a0,a0,a1
    246c:	72a0a623          	sw	a0,1836(ra)

00002470 <inst_460>:
    2470:	555555b7          	lui	a1,0x55555
    2474:	55458593          	addi	a1,a1,1364 # 55555554 <_end+0x55550a50>
    2478:	00400513          	li	a0,4
    247c:	8d0d                	sub	a0,a0,a1
    247e:	72a0a823          	sw	a0,1840(ra)

00002482 <inst_461>:
    2482:	00000593          	li	a1,0
    2486:	00400513          	li	a0,4
    248a:	8d0d                	sub	a0,a0,a1
    248c:	72a0aa23          	sw	a0,1844(ra)

00002490 <inst_462>:
    2490:	333335b7          	lui	a1,0x33333
    2494:	33258593          	addi	a1,a1,818 # 33333332 <_end+0x3332e82e>
    2498:	00400513          	li	a0,4
    249c:	8d0d                	sub	a0,a0,a1
    249e:	72a0ac23          	sw	a0,1848(ra)

000024a2 <inst_463>:
    24a2:	666665b7          	lui	a1,0x66666
    24a6:	66558593          	addi	a1,a1,1637 # 66666665 <_end+0x66661b61>
    24aa:	00400513          	li	a0,4
    24ae:	8d0d                	sub	a0,a0,a1
    24b0:	72a0ae23          	sw	a0,1852(ra)

000024b4 <inst_464>:
    24b4:	0000b5b7          	lui	a1,0xb
    24b8:	50358593          	addi	a1,a1,1283 # b503 <_end+0x69ff>
    24bc:	00400513          	li	a0,4
    24c0:	8d0d                	sub	a0,a0,a1
    24c2:	74a0a023          	sw	a0,1856(ra)

000024c6 <inst_465>:
    24c6:	555555b7          	lui	a1,0x55555
    24ca:	55658593          	addi	a1,a1,1366 # 55555556 <_end+0x55550a52>
    24ce:	00400513          	li	a0,4
    24d2:	8d0d                	sub	a0,a0,a1
    24d4:	74a0a223          	sw	a0,1860(ra)

000024d8 <inst_466>:
    24d8:	aaaab5b7          	lui	a1,0xaaaab
    24dc:	aab58593          	addi	a1,a1,-1365 # aaaaaaab <_end+0xaaaa5fa7>
    24e0:	00400513          	li	a0,4
    24e4:	8d0d                	sub	a0,a0,a1
    24e6:	74a0a423          	sw	a0,1864(ra)

000024ea <inst_467>:
    24ea:	00600593          	li	a1,6
    24ee:	00400513          	li	a0,4
    24f2:	8d0d                	sub	a0,a0,a1
    24f4:	74a0a623          	sw	a0,1868(ra)

000024f8 <inst_468>:
    24f8:	333335b7          	lui	a1,0x33333
    24fc:	33458593          	addi	a1,a1,820 # 33333334 <_end+0x3332e830>
    2500:	00400513          	li	a0,4
    2504:	8d0d                	sub	a0,a0,a1
    2506:	74a0a823          	sw	a0,1872(ra)

0000250a <inst_469>:
    250a:	666665b7          	lui	a1,0x66666
    250e:	66758593          	addi	a1,a1,1639 # 66666667 <_end+0x66661b63>
    2512:	00400513          	li	a0,4
    2516:	8d0d                	sub	a0,a0,a1
    2518:	74a0aa23          	sw	a0,1876(ra)

0000251c <inst_470>:
    251c:	ffff55b7          	lui	a1,0xffff5
    2520:	afd58593          	addi	a1,a1,-1283 # ffff4afd <_end+0xfffefff9>
    2524:	00400513          	li	a0,4
    2528:	8d0d                	sub	a0,a0,a1
    252a:	74a0ac23          	sw	a0,1880(ra)

0000252e <inst_471>:
    252e:	0000b5b7          	lui	a1,0xb
    2532:	50558593          	addi	a1,a1,1285 # b505 <_end+0x6a01>
    2536:	00400513          	li	a0,4
    253a:	8d0d                	sub	a0,a0,a1
    253c:	74a0ae23          	sw	a0,1884(ra)

00002540 <inst_472>:
    2540:	00300593          	li	a1,3
    2544:	33333537          	lui	a0,0x33333
    2548:	33250513          	addi	a0,a0,818 # 33333332 <_end+0x3332e82e>
    254c:	8d0d                	sub	a0,a0,a1
    254e:	76a0a023          	sw	a0,1888(ra)

00002552 <inst_473>:
    2552:	555555b7          	lui	a1,0x55555
    2556:	55558593          	addi	a1,a1,1365 # 55555555 <_end+0x55550a51>
    255a:	33333537          	lui	a0,0x33333
    255e:	33250513          	addi	a0,a0,818 # 33333332 <_end+0x3332e82e>
    2562:	8d0d                	sub	a0,a0,a1
    2564:	76a0a223          	sw	a0,1892(ra)

00002568 <inst_474>:
    2568:	aaaab5b7          	lui	a1,0xaaaab
    256c:	aaa58593          	addi	a1,a1,-1366 # aaaaaaaa <_end+0xaaaa5fa6>
    2570:	33333537          	lui	a0,0x33333
    2574:	33250513          	addi	a0,a0,818 # 33333332 <_end+0x3332e82e>
    2578:	8d0d                	sub	a0,a0,a1
    257a:	76a0a423          	sw	a0,1896(ra)

0000257e <inst_475>:
    257e:	00500593          	li	a1,5
    2582:	33333537          	lui	a0,0x33333
    2586:	33250513          	addi	a0,a0,818 # 33333332 <_end+0x3332e82e>
    258a:	8d0d                	sub	a0,a0,a1
    258c:	76a0a623          	sw	a0,1900(ra)

00002590 <inst_476>:
    2590:	333335b7          	lui	a1,0x33333
    2594:	33358593          	addi	a1,a1,819 # 33333333 <_end+0x3332e82f>
    2598:	33333537          	lui	a0,0x33333
    259c:	33250513          	addi	a0,a0,818 # 33333332 <_end+0x3332e82e>
    25a0:	8d0d                	sub	a0,a0,a1
    25a2:	76a0a823          	sw	a0,1904(ra)

000025a6 <inst_477>:
    25a6:	666665b7          	lui	a1,0x66666
    25aa:	66658593          	addi	a1,a1,1638 # 66666666 <_end+0x66661b62>
    25ae:	33333537          	lui	a0,0x33333
    25b2:	33250513          	addi	a0,a0,818 # 33333332 <_end+0x3332e82e>
    25b6:	8d0d                	sub	a0,a0,a1
    25b8:	76a0aa23          	sw	a0,1908(ra)

000025bc <inst_478>:
    25bc:	ffff55b7          	lui	a1,0xffff5
    25c0:	afc58593          	addi	a1,a1,-1284 # ffff4afc <_end+0xfffefff8>
    25c4:	33333537          	lui	a0,0x33333
    25c8:	33250513          	addi	a0,a0,818 # 33333332 <_end+0x3332e82e>
    25cc:	8d0d                	sub	a0,a0,a1
    25ce:	76a0ac23          	sw	a0,1912(ra)

000025d2 <inst_479>:
    25d2:	0000b5b7          	lui	a1,0xb
    25d6:	50458593          	addi	a1,a1,1284 # b504 <_end+0x6a00>
    25da:	33333537          	lui	a0,0x33333
    25de:	33250513          	addi	a0,a0,818 # 33333332 <_end+0x3332e82e>
    25e2:	8d0d                	sub	a0,a0,a1
    25e4:	76a0ae23          	sw	a0,1916(ra)

000025e8 <inst_480>:
    25e8:	00200593          	li	a1,2
    25ec:	33333537          	lui	a0,0x33333
    25f0:	33250513          	addi	a0,a0,818 # 33333332 <_end+0x3332e82e>
    25f4:	8d0d                	sub	a0,a0,a1
    25f6:	78a0a023          	sw	a0,1920(ra)

000025fa <inst_481>:
    25fa:	555555b7          	lui	a1,0x55555
    25fe:	55458593          	addi	a1,a1,1364 # 55555554 <_end+0x55550a50>
    2602:	33333537          	lui	a0,0x33333
    2606:	33250513          	addi	a0,a0,818 # 33333332 <_end+0x3332e82e>
    260a:	8d0d                	sub	a0,a0,a1
    260c:	78a0a223          	sw	a0,1924(ra)

00002610 <inst_482>:
    2610:	00000593          	li	a1,0
    2614:	33333537          	lui	a0,0x33333
    2618:	33250513          	addi	a0,a0,818 # 33333332 <_end+0x3332e82e>
    261c:	8d0d                	sub	a0,a0,a1
    261e:	78a0a423          	sw	a0,1928(ra)

00002622 <inst_483>:
    2622:	00400593          	li	a1,4
    2626:	33333537          	lui	a0,0x33333
    262a:	33250513          	addi	a0,a0,818 # 33333332 <_end+0x3332e82e>
    262e:	8d0d                	sub	a0,a0,a1
    2630:	78a0a623          	sw	a0,1932(ra)

00002634 <inst_484>:
    2634:	333335b7          	lui	a1,0x33333
    2638:	33258593          	addi	a1,a1,818 # 33333332 <_end+0x3332e82e>
    263c:	33333537          	lui	a0,0x33333
    2640:	33250513          	addi	a0,a0,818 # 33333332 <_end+0x3332e82e>
    2644:	8d0d                	sub	a0,a0,a1
    2646:	78a0a823          	sw	a0,1936(ra)

0000264a <inst_485>:
    264a:	666665b7          	lui	a1,0x66666
    264e:	66558593          	addi	a1,a1,1637 # 66666665 <_end+0x66661b61>
    2652:	33333537          	lui	a0,0x33333
    2656:	33250513          	addi	a0,a0,818 # 33333332 <_end+0x3332e82e>
    265a:	8d0d                	sub	a0,a0,a1
    265c:	78a0aa23          	sw	a0,1940(ra)

00002660 <inst_486>:
    2660:	0000b5b7          	lui	a1,0xb
    2664:	50358593          	addi	a1,a1,1283 # b503 <_end+0x69ff>
    2668:	33333537          	lui	a0,0x33333
    266c:	33250513          	addi	a0,a0,818 # 33333332 <_end+0x3332e82e>
    2670:	8d0d                	sub	a0,a0,a1
    2672:	78a0ac23          	sw	a0,1944(ra)

00002676 <inst_487>:
    2676:	555555b7          	lui	a1,0x55555
    267a:	55658593          	addi	a1,a1,1366 # 55555556 <_end+0x55550a52>
    267e:	33333537          	lui	a0,0x33333
    2682:	33250513          	addi	a0,a0,818 # 33333332 <_end+0x3332e82e>
    2686:	8d0d                	sub	a0,a0,a1
    2688:	78a0ae23          	sw	a0,1948(ra)

0000268c <inst_488>:
    268c:	aaaab5b7          	lui	a1,0xaaaab
    2690:	aab58593          	addi	a1,a1,-1365 # aaaaaaab <_end+0xaaaa5fa7>
    2694:	33333537          	lui	a0,0x33333
    2698:	33250513          	addi	a0,a0,818 # 33333332 <_end+0x3332e82e>
    269c:	8d0d                	sub	a0,a0,a1
    269e:	7aa0a023          	sw	a0,1952(ra)

000026a2 <inst_489>:
    26a2:	00600593          	li	a1,6
    26a6:	33333537          	lui	a0,0x33333
    26aa:	33250513          	addi	a0,a0,818 # 33333332 <_end+0x3332e82e>
    26ae:	8d0d                	sub	a0,a0,a1
    26b0:	7aa0a223          	sw	a0,1956(ra)

000026b4 <inst_490>:
    26b4:	333335b7          	lui	a1,0x33333
    26b8:	33458593          	addi	a1,a1,820 # 33333334 <_end+0x3332e830>
    26bc:	33333537          	lui	a0,0x33333
    26c0:	33250513          	addi	a0,a0,818 # 33333332 <_end+0x3332e82e>
    26c4:	8d0d                	sub	a0,a0,a1
    26c6:	7aa0a423          	sw	a0,1960(ra)

000026ca <inst_491>:
    26ca:	666665b7          	lui	a1,0x66666
    26ce:	66758593          	addi	a1,a1,1639 # 66666667 <_end+0x66661b63>
    26d2:	33333537          	lui	a0,0x33333
    26d6:	33250513          	addi	a0,a0,818 # 33333332 <_end+0x3332e82e>
    26da:	8d0d                	sub	a0,a0,a1
    26dc:	7aa0a623          	sw	a0,1964(ra)

000026e0 <inst_492>:
    26e0:	ffff55b7          	lui	a1,0xffff5
    26e4:	afd58593          	addi	a1,a1,-1283 # ffff4afd <_end+0xfffefff9>
    26e8:	33333537          	lui	a0,0x33333
    26ec:	33250513          	addi	a0,a0,818 # 33333332 <_end+0x3332e82e>
    26f0:	8d0d                	sub	a0,a0,a1
    26f2:	7aa0a823          	sw	a0,1968(ra)

000026f6 <inst_493>:
    26f6:	0000b5b7          	lui	a1,0xb
    26fa:	50558593          	addi	a1,a1,1285 # b505 <_end+0x6a01>
    26fe:	33333537          	lui	a0,0x33333
    2702:	33250513          	addi	a0,a0,818 # 33333332 <_end+0x3332e82e>
    2706:	8d0d                	sub	a0,a0,a1
    2708:	7aa0aa23          	sw	a0,1972(ra)

0000270c <inst_494>:
    270c:	00300593          	li	a1,3
    2710:	66666537          	lui	a0,0x66666
    2714:	66550513          	addi	a0,a0,1637 # 66666665 <_end+0x66661b61>
    2718:	8d0d                	sub	a0,a0,a1
    271a:	7aa0ac23          	sw	a0,1976(ra)

0000271e <inst_495>:
    271e:	555555b7          	lui	a1,0x55555
    2722:	55558593          	addi	a1,a1,1365 # 55555555 <_end+0x55550a51>
    2726:	66666537          	lui	a0,0x66666
    272a:	66550513          	addi	a0,a0,1637 # 66666665 <_end+0x66661b61>
    272e:	8d0d                	sub	a0,a0,a1
    2730:	7aa0ae23          	sw	a0,1980(ra)

00002734 <inst_496>:
    2734:	aaaab5b7          	lui	a1,0xaaaab
    2738:	aaa58593          	addi	a1,a1,-1366 # aaaaaaaa <_end+0xaaaa5fa6>
    273c:	66666537          	lui	a0,0x66666
    2740:	66550513          	addi	a0,a0,1637 # 66666665 <_end+0x66661b61>
    2744:	8d0d                	sub	a0,a0,a1
    2746:	7ca0a023          	sw	a0,1984(ra)

0000274a <inst_497>:
    274a:	00500593          	li	a1,5
    274e:	66666537          	lui	a0,0x66666
    2752:	66550513          	addi	a0,a0,1637 # 66666665 <_end+0x66661b61>
    2756:	8d0d                	sub	a0,a0,a1
    2758:	7ca0a223          	sw	a0,1988(ra)

0000275c <inst_498>:
    275c:	333335b7          	lui	a1,0x33333
    2760:	33358593          	addi	a1,a1,819 # 33333333 <_end+0x3332e82f>
    2764:	66666537          	lui	a0,0x66666
    2768:	66550513          	addi	a0,a0,1637 # 66666665 <_end+0x66661b61>
    276c:	8d0d                	sub	a0,a0,a1
    276e:	7ca0a423          	sw	a0,1992(ra)

00002772 <inst_499>:
    2772:	666665b7          	lui	a1,0x66666
    2776:	66658593          	addi	a1,a1,1638 # 66666666 <_end+0x66661b62>
    277a:	66666537          	lui	a0,0x66666
    277e:	66550513          	addi	a0,a0,1637 # 66666665 <_end+0x66661b61>
    2782:	8d0d                	sub	a0,a0,a1
    2784:	7ca0a623          	sw	a0,1996(ra)

00002788 <inst_500>:
    2788:	ffff55b7          	lui	a1,0xffff5
    278c:	afc58593          	addi	a1,a1,-1284 # ffff4afc <_end+0xfffefff8>
    2790:	66666537          	lui	a0,0x66666
    2794:	66550513          	addi	a0,a0,1637 # 66666665 <_end+0x66661b61>
    2798:	8d0d                	sub	a0,a0,a1
    279a:	7ca0a823          	sw	a0,2000(ra)

0000279e <inst_501>:
    279e:	0000b5b7          	lui	a1,0xb
    27a2:	50458593          	addi	a1,a1,1284 # b504 <_end+0x6a00>
    27a6:	66666537          	lui	a0,0x66666
    27aa:	66550513          	addi	a0,a0,1637 # 66666665 <_end+0x66661b61>
    27ae:	8d0d                	sub	a0,a0,a1
    27b0:	7ca0aa23          	sw	a0,2004(ra)

000027b4 <inst_502>:
    27b4:	00200593          	li	a1,2
    27b8:	66666537          	lui	a0,0x66666
    27bc:	66550513          	addi	a0,a0,1637 # 66666665 <_end+0x66661b61>
    27c0:	8d0d                	sub	a0,a0,a1
    27c2:	7ca0ac23          	sw	a0,2008(ra)

000027c6 <inst_503>:
    27c6:	555555b7          	lui	a1,0x55555
    27ca:	55458593          	addi	a1,a1,1364 # 55555554 <_end+0x55550a50>
    27ce:	66666537          	lui	a0,0x66666
    27d2:	66550513          	addi	a0,a0,1637 # 66666665 <_end+0x66661b61>
    27d6:	8d0d                	sub	a0,a0,a1
    27d8:	7ca0ae23          	sw	a0,2012(ra)

000027dc <inst_504>:
    27dc:	00000593          	li	a1,0
    27e0:	66666537          	lui	a0,0x66666
    27e4:	66550513          	addi	a0,a0,1637 # 66666665 <_end+0x66661b61>
    27e8:	8d0d                	sub	a0,a0,a1
    27ea:	7ea0a023          	sw	a0,2016(ra)

000027ee <inst_505>:
    27ee:	00400593          	li	a1,4
    27f2:	66666537          	lui	a0,0x66666
    27f6:	66550513          	addi	a0,a0,1637 # 66666665 <_end+0x66661b61>
    27fa:	8d0d                	sub	a0,a0,a1
    27fc:	7ea0a223          	sw	a0,2020(ra)

00002800 <inst_506>:
    2800:	333335b7          	lui	a1,0x33333
    2804:	33258593          	addi	a1,a1,818 # 33333332 <_end+0x3332e82e>
    2808:	66666537          	lui	a0,0x66666
    280c:	66550513          	addi	a0,a0,1637 # 66666665 <_end+0x66661b61>
    2810:	8d0d                	sub	a0,a0,a1
    2812:	7ea0a423          	sw	a0,2024(ra)

00002816 <inst_507>:
    2816:	666665b7          	lui	a1,0x66666
    281a:	66558593          	addi	a1,a1,1637 # 66666665 <_end+0x66661b61>
    281e:	66666537          	lui	a0,0x66666
    2822:	66550513          	addi	a0,a0,1637 # 66666665 <_end+0x66661b61>
    2826:	8d0d                	sub	a0,a0,a1
    2828:	7ea0a623          	sw	a0,2028(ra)

0000282c <inst_508>:
    282c:	0000b5b7          	lui	a1,0xb
    2830:	50358593          	addi	a1,a1,1283 # b503 <_end+0x69ff>
    2834:	66666537          	lui	a0,0x66666
    2838:	66550513          	addi	a0,a0,1637 # 66666665 <_end+0x66661b61>
    283c:	8d0d                	sub	a0,a0,a1
    283e:	7ea0a823          	sw	a0,2032(ra)

00002842 <inst_509>:
    2842:	555555b7          	lui	a1,0x55555
    2846:	55658593          	addi	a1,a1,1366 # 55555556 <_end+0x55550a52>
    284a:	66666537          	lui	a0,0x66666
    284e:	66550513          	addi	a0,a0,1637 # 66666665 <_end+0x66661b61>
    2852:	8d0d                	sub	a0,a0,a1
    2854:	7ea0aa23          	sw	a0,2036(ra)

00002858 <inst_510>:
    2858:	aaaab5b7          	lui	a1,0xaaaab
    285c:	aab58593          	addi	a1,a1,-1365 # aaaaaaab <_end+0xaaaa5fa7>
    2860:	66666537          	lui	a0,0x66666
    2864:	66550513          	addi	a0,a0,1637 # 66666665 <_end+0x66661b61>
    2868:	8d0d                	sub	a0,a0,a1
    286a:	7ea0ac23          	sw	a0,2040(ra)

0000286e <inst_511>:
    286e:	00600593          	li	a1,6
    2872:	66666537          	lui	a0,0x66666
    2876:	66550513          	addi	a0,a0,1637 # 66666665 <_end+0x66661b61>
    287a:	8d0d                	sub	a0,a0,a1
    287c:	7ea0ae23          	sw	a0,2044(ra)
    2880:	00002097          	auipc	ra,0x2
    2884:	f9008093          	addi	ra,ra,-112 # 4810 <signature_x1_2>

00002888 <inst_512>:
    2888:	333335b7          	lui	a1,0x33333
    288c:	33458593          	addi	a1,a1,820 # 33333334 <_end+0x3332e830>
    2890:	66666537          	lui	a0,0x66666
    2894:	66550513          	addi	a0,a0,1637 # 66666665 <_end+0x66661b61>
    2898:	8d0d                	sub	a0,a0,a1
    289a:	00a0a023          	sw	a0,0(ra)

0000289e <inst_513>:
    289e:	666665b7          	lui	a1,0x66666
    28a2:	66758593          	addi	a1,a1,1639 # 66666667 <_end+0x66661b63>
    28a6:	66666537          	lui	a0,0x66666
    28aa:	66550513          	addi	a0,a0,1637 # 66666665 <_end+0x66661b61>
    28ae:	8d0d                	sub	a0,a0,a1
    28b0:	00a0a223          	sw	a0,4(ra)

000028b4 <inst_514>:
    28b4:	ffff55b7          	lui	a1,0xffff5
    28b8:	afd58593          	addi	a1,a1,-1283 # ffff4afd <_end+0xfffefff9>
    28bc:	66666537          	lui	a0,0x66666
    28c0:	66550513          	addi	a0,a0,1637 # 66666665 <_end+0x66661b61>
    28c4:	8d0d                	sub	a0,a0,a1
    28c6:	00a0a423          	sw	a0,8(ra)

000028ca <inst_515>:
    28ca:	0000b5b7          	lui	a1,0xb
    28ce:	50558593          	addi	a1,a1,1285 # b505 <_end+0x6a01>
    28d2:	66666537          	lui	a0,0x66666
    28d6:	66550513          	addi	a0,a0,1637 # 66666665 <_end+0x66661b61>
    28da:	8d0d                	sub	a0,a0,a1
    28dc:	00a0a623          	sw	a0,12(ra)

000028e0 <inst_516>:
    28e0:	00300593          	li	a1,3
    28e4:	0000b537          	lui	a0,0xb
    28e8:	50350513          	addi	a0,a0,1283 # b503 <_end+0x69ff>
    28ec:	8d0d                	sub	a0,a0,a1
    28ee:	00a0a823          	sw	a0,16(ra)

000028f2 <inst_517>:
    28f2:	555555b7          	lui	a1,0x55555
    28f6:	55558593          	addi	a1,a1,1365 # 55555555 <_end+0x55550a51>
    28fa:	0000b537          	lui	a0,0xb
    28fe:	50350513          	addi	a0,a0,1283 # b503 <_end+0x69ff>
    2902:	8d0d                	sub	a0,a0,a1
    2904:	00a0aa23          	sw	a0,20(ra)

00002908 <inst_518>:
    2908:	aaaab5b7          	lui	a1,0xaaaab
    290c:	aaa58593          	addi	a1,a1,-1366 # aaaaaaaa <_end+0xaaaa5fa6>
    2910:	0000b537          	lui	a0,0xb
    2914:	50350513          	addi	a0,a0,1283 # b503 <_end+0x69ff>
    2918:	8d0d                	sub	a0,a0,a1
    291a:	00a0ac23          	sw	a0,24(ra)

0000291e <inst_519>:
    291e:	00500593          	li	a1,5
    2922:	0000b537          	lui	a0,0xb
    2926:	50350513          	addi	a0,a0,1283 # b503 <_end+0x69ff>
    292a:	8d0d                	sub	a0,a0,a1
    292c:	00a0ae23          	sw	a0,28(ra)

00002930 <inst_520>:
    2930:	333335b7          	lui	a1,0x33333
    2934:	33358593          	addi	a1,a1,819 # 33333333 <_end+0x3332e82f>
    2938:	0000b537          	lui	a0,0xb
    293c:	50350513          	addi	a0,a0,1283 # b503 <_end+0x69ff>
    2940:	8d0d                	sub	a0,a0,a1
    2942:	02a0a023          	sw	a0,32(ra)

00002946 <inst_521>:
    2946:	666665b7          	lui	a1,0x66666
    294a:	66658593          	addi	a1,a1,1638 # 66666666 <_end+0x66661b62>
    294e:	0000b537          	lui	a0,0xb
    2952:	50350513          	addi	a0,a0,1283 # b503 <_end+0x69ff>
    2956:	8d0d                	sub	a0,a0,a1
    2958:	02a0a223          	sw	a0,36(ra)

0000295c <inst_522>:
    295c:	ffff55b7          	lui	a1,0xffff5
    2960:	afc58593          	addi	a1,a1,-1284 # ffff4afc <_end+0xfffefff8>
    2964:	0000b537          	lui	a0,0xb
    2968:	50350513          	addi	a0,a0,1283 # b503 <_end+0x69ff>
    296c:	8d0d                	sub	a0,a0,a1
    296e:	02a0a423          	sw	a0,40(ra)

00002972 <inst_523>:
    2972:	0000b5b7          	lui	a1,0xb
    2976:	50458593          	addi	a1,a1,1284 # b504 <_end+0x6a00>
    297a:	0000b537          	lui	a0,0xb
    297e:	50350513          	addi	a0,a0,1283 # b503 <_end+0x69ff>
    2982:	8d0d                	sub	a0,a0,a1
    2984:	02a0a623          	sw	a0,44(ra)

00002988 <inst_524>:
    2988:	00200593          	li	a1,2
    298c:	0000b537          	lui	a0,0xb
    2990:	50350513          	addi	a0,a0,1283 # b503 <_end+0x69ff>
    2994:	8d0d                	sub	a0,a0,a1
    2996:	02a0a823          	sw	a0,48(ra)

0000299a <inst_525>:
    299a:	555555b7          	lui	a1,0x55555
    299e:	55458593          	addi	a1,a1,1364 # 55555554 <_end+0x55550a50>
    29a2:	0000b537          	lui	a0,0xb
    29a6:	50350513          	addi	a0,a0,1283 # b503 <_end+0x69ff>
    29aa:	8d0d                	sub	a0,a0,a1
    29ac:	02a0aa23          	sw	a0,52(ra)

000029b0 <inst_526>:
    29b0:	00000593          	li	a1,0
    29b4:	0000b537          	lui	a0,0xb
    29b8:	50350513          	addi	a0,a0,1283 # b503 <_end+0x69ff>
    29bc:	8d0d                	sub	a0,a0,a1
    29be:	02a0ac23          	sw	a0,56(ra)

000029c2 <inst_527>:
    29c2:	00400593          	li	a1,4
    29c6:	0000b537          	lui	a0,0xb
    29ca:	50350513          	addi	a0,a0,1283 # b503 <_end+0x69ff>
    29ce:	8d0d                	sub	a0,a0,a1
    29d0:	02a0ae23          	sw	a0,60(ra)

000029d4 <inst_528>:
    29d4:	333335b7          	lui	a1,0x33333
    29d8:	33258593          	addi	a1,a1,818 # 33333332 <_end+0x3332e82e>
    29dc:	0000b537          	lui	a0,0xb
    29e0:	50350513          	addi	a0,a0,1283 # b503 <_end+0x69ff>
    29e4:	8d0d                	sub	a0,a0,a1
    29e6:	04a0a023          	sw	a0,64(ra)

000029ea <inst_529>:
    29ea:	666665b7          	lui	a1,0x66666
    29ee:	66558593          	addi	a1,a1,1637 # 66666665 <_end+0x66661b61>
    29f2:	0000b537          	lui	a0,0xb
    29f6:	50350513          	addi	a0,a0,1283 # b503 <_end+0x69ff>
    29fa:	8d0d                	sub	a0,a0,a1
    29fc:	04a0a223          	sw	a0,68(ra)

00002a00 <inst_530>:
    2a00:	0000b5b7          	lui	a1,0xb
    2a04:	50358593          	addi	a1,a1,1283 # b503 <_end+0x69ff>
    2a08:	0000b537          	lui	a0,0xb
    2a0c:	50350513          	addi	a0,a0,1283 # b503 <_end+0x69ff>
    2a10:	8d0d                	sub	a0,a0,a1
    2a12:	04a0a423          	sw	a0,72(ra)

00002a16 <inst_531>:
    2a16:	555555b7          	lui	a1,0x55555
    2a1a:	55658593          	addi	a1,a1,1366 # 55555556 <_end+0x55550a52>
    2a1e:	0000b537          	lui	a0,0xb
    2a22:	50350513          	addi	a0,a0,1283 # b503 <_end+0x69ff>
    2a26:	8d0d                	sub	a0,a0,a1
    2a28:	04a0a623          	sw	a0,76(ra)

00002a2c <inst_532>:
    2a2c:	aaaab5b7          	lui	a1,0xaaaab
    2a30:	aab58593          	addi	a1,a1,-1365 # aaaaaaab <_end+0xaaaa5fa7>
    2a34:	0000b537          	lui	a0,0xb
    2a38:	50350513          	addi	a0,a0,1283 # b503 <_end+0x69ff>
    2a3c:	8d0d                	sub	a0,a0,a1
    2a3e:	04a0a823          	sw	a0,80(ra)

00002a42 <inst_533>:
    2a42:	00600593          	li	a1,6
    2a46:	0000b537          	lui	a0,0xb
    2a4a:	50350513          	addi	a0,a0,1283 # b503 <_end+0x69ff>
    2a4e:	8d0d                	sub	a0,a0,a1
    2a50:	04a0aa23          	sw	a0,84(ra)

00002a54 <inst_534>:
    2a54:	333335b7          	lui	a1,0x33333
    2a58:	33458593          	addi	a1,a1,820 # 33333334 <_end+0x3332e830>
    2a5c:	0000b537          	lui	a0,0xb
    2a60:	50350513          	addi	a0,a0,1283 # b503 <_end+0x69ff>
    2a64:	8d0d                	sub	a0,a0,a1
    2a66:	04a0ac23          	sw	a0,88(ra)

00002a6a <inst_535>:
    2a6a:	666665b7          	lui	a1,0x66666
    2a6e:	66758593          	addi	a1,a1,1639 # 66666667 <_end+0x66661b63>
    2a72:	0000b537          	lui	a0,0xb
    2a76:	50350513          	addi	a0,a0,1283 # b503 <_end+0x69ff>
    2a7a:	8d0d                	sub	a0,a0,a1
    2a7c:	04a0ae23          	sw	a0,92(ra)

00002a80 <inst_536>:
    2a80:	ffff55b7          	lui	a1,0xffff5
    2a84:	afd58593          	addi	a1,a1,-1283 # ffff4afd <_end+0xfffefff9>
    2a88:	0000b537          	lui	a0,0xb
    2a8c:	50350513          	addi	a0,a0,1283 # b503 <_end+0x69ff>
    2a90:	8d0d                	sub	a0,a0,a1
    2a92:	06a0a023          	sw	a0,96(ra)

00002a96 <inst_537>:
    2a96:	0000b5b7          	lui	a1,0xb
    2a9a:	50558593          	addi	a1,a1,1285 # b505 <_end+0x6a01>
    2a9e:	0000b537          	lui	a0,0xb
    2aa2:	50350513          	addi	a0,a0,1283 # b503 <_end+0x69ff>
    2aa6:	8d0d                	sub	a0,a0,a1
    2aa8:	06a0a223          	sw	a0,100(ra)

00002aac <inst_538>:
    2aac:	00300593          	li	a1,3
    2ab0:	55555537          	lui	a0,0x55555
    2ab4:	55650513          	addi	a0,a0,1366 # 55555556 <_end+0x55550a52>
    2ab8:	8d0d                	sub	a0,a0,a1
    2aba:	06a0a423          	sw	a0,104(ra)

00002abe <inst_539>:
    2abe:	555555b7          	lui	a1,0x55555
    2ac2:	55558593          	addi	a1,a1,1365 # 55555555 <_end+0x55550a51>
    2ac6:	55555537          	lui	a0,0x55555
    2aca:	55650513          	addi	a0,a0,1366 # 55555556 <_end+0x55550a52>
    2ace:	8d0d                	sub	a0,a0,a1
    2ad0:	06a0a623          	sw	a0,108(ra)

00002ad4 <inst_540>:
    2ad4:	aaaab5b7          	lui	a1,0xaaaab
    2ad8:	aaa58593          	addi	a1,a1,-1366 # aaaaaaaa <_end+0xaaaa5fa6>
    2adc:	55555537          	lui	a0,0x55555
    2ae0:	55650513          	addi	a0,a0,1366 # 55555556 <_end+0x55550a52>
    2ae4:	8d0d                	sub	a0,a0,a1
    2ae6:	06a0a823          	sw	a0,112(ra)

00002aea <inst_541>:
    2aea:	00500593          	li	a1,5
    2aee:	55555537          	lui	a0,0x55555
    2af2:	55650513          	addi	a0,a0,1366 # 55555556 <_end+0x55550a52>
    2af6:	8d0d                	sub	a0,a0,a1
    2af8:	06a0aa23          	sw	a0,116(ra)

00002afc <inst_542>:
    2afc:	333335b7          	lui	a1,0x33333
    2b00:	33358593          	addi	a1,a1,819 # 33333333 <_end+0x3332e82f>
    2b04:	55555537          	lui	a0,0x55555
    2b08:	55650513          	addi	a0,a0,1366 # 55555556 <_end+0x55550a52>
    2b0c:	8d0d                	sub	a0,a0,a1
    2b0e:	06a0ac23          	sw	a0,120(ra)

00002b12 <inst_543>:
    2b12:	666665b7          	lui	a1,0x66666
    2b16:	66658593          	addi	a1,a1,1638 # 66666666 <_end+0x66661b62>
    2b1a:	55555537          	lui	a0,0x55555
    2b1e:	55650513          	addi	a0,a0,1366 # 55555556 <_end+0x55550a52>
    2b22:	8d0d                	sub	a0,a0,a1
    2b24:	06a0ae23          	sw	a0,124(ra)

00002b28 <inst_544>:
    2b28:	ffff55b7          	lui	a1,0xffff5
    2b2c:	afc58593          	addi	a1,a1,-1284 # ffff4afc <_end+0xfffefff8>
    2b30:	55555537          	lui	a0,0x55555
    2b34:	55650513          	addi	a0,a0,1366 # 55555556 <_end+0x55550a52>
    2b38:	8d0d                	sub	a0,a0,a1
    2b3a:	08a0a023          	sw	a0,128(ra)

00002b3e <inst_545>:
    2b3e:	0000b5b7          	lui	a1,0xb
    2b42:	50458593          	addi	a1,a1,1284 # b504 <_end+0x6a00>
    2b46:	55555537          	lui	a0,0x55555
    2b4a:	55650513          	addi	a0,a0,1366 # 55555556 <_end+0x55550a52>
    2b4e:	8d0d                	sub	a0,a0,a1
    2b50:	08a0a223          	sw	a0,132(ra)

00002b54 <inst_546>:
    2b54:	00200593          	li	a1,2
    2b58:	55555537          	lui	a0,0x55555
    2b5c:	55650513          	addi	a0,a0,1366 # 55555556 <_end+0x55550a52>
    2b60:	8d0d                	sub	a0,a0,a1
    2b62:	08a0a423          	sw	a0,136(ra)

00002b66 <inst_547>:
    2b66:	555555b7          	lui	a1,0x55555
    2b6a:	55458593          	addi	a1,a1,1364 # 55555554 <_end+0x55550a50>
    2b6e:	55555537          	lui	a0,0x55555
    2b72:	55650513          	addi	a0,a0,1366 # 55555556 <_end+0x55550a52>
    2b76:	8d0d                	sub	a0,a0,a1
    2b78:	08a0a623          	sw	a0,140(ra)

00002b7c <inst_548>:
    2b7c:	00000593          	li	a1,0
    2b80:	55555537          	lui	a0,0x55555
    2b84:	55650513          	addi	a0,a0,1366 # 55555556 <_end+0x55550a52>
    2b88:	8d0d                	sub	a0,a0,a1
    2b8a:	08a0a823          	sw	a0,144(ra)

00002b8e <inst_549>:
    2b8e:	00400593          	li	a1,4
    2b92:	55555537          	lui	a0,0x55555
    2b96:	55650513          	addi	a0,a0,1366 # 55555556 <_end+0x55550a52>
    2b9a:	8d0d                	sub	a0,a0,a1
    2b9c:	08a0aa23          	sw	a0,148(ra)

00002ba0 <inst_550>:
    2ba0:	333335b7          	lui	a1,0x33333
    2ba4:	33258593          	addi	a1,a1,818 # 33333332 <_end+0x3332e82e>
    2ba8:	55555537          	lui	a0,0x55555
    2bac:	55650513          	addi	a0,a0,1366 # 55555556 <_end+0x55550a52>
    2bb0:	8d0d                	sub	a0,a0,a1
    2bb2:	08a0ac23          	sw	a0,152(ra)

00002bb6 <inst_551>:
    2bb6:	666665b7          	lui	a1,0x66666
    2bba:	66558593          	addi	a1,a1,1637 # 66666665 <_end+0x66661b61>
    2bbe:	55555537          	lui	a0,0x55555
    2bc2:	55650513          	addi	a0,a0,1366 # 55555556 <_end+0x55550a52>
    2bc6:	8d0d                	sub	a0,a0,a1
    2bc8:	08a0ae23          	sw	a0,156(ra)

00002bcc <inst_552>:
    2bcc:	0000b5b7          	lui	a1,0xb
    2bd0:	50358593          	addi	a1,a1,1283 # b503 <_end+0x69ff>
    2bd4:	55555537          	lui	a0,0x55555
    2bd8:	55650513          	addi	a0,a0,1366 # 55555556 <_end+0x55550a52>
    2bdc:	8d0d                	sub	a0,a0,a1
    2bde:	0aa0a023          	sw	a0,160(ra)

00002be2 <inst_553>:
    2be2:	555555b7          	lui	a1,0x55555
    2be6:	55658593          	addi	a1,a1,1366 # 55555556 <_end+0x55550a52>
    2bea:	55555537          	lui	a0,0x55555
    2bee:	55650513          	addi	a0,a0,1366 # 55555556 <_end+0x55550a52>
    2bf2:	8d0d                	sub	a0,a0,a1
    2bf4:	0aa0a223          	sw	a0,164(ra)

00002bf8 <inst_554>:
    2bf8:	aaaab5b7          	lui	a1,0xaaaab
    2bfc:	aab58593          	addi	a1,a1,-1365 # aaaaaaab <_end+0xaaaa5fa7>
    2c00:	55555537          	lui	a0,0x55555
    2c04:	55650513          	addi	a0,a0,1366 # 55555556 <_end+0x55550a52>
    2c08:	8d0d                	sub	a0,a0,a1
    2c0a:	0aa0a423          	sw	a0,168(ra)

00002c0e <inst_555>:
    2c0e:	00600593          	li	a1,6
    2c12:	55555537          	lui	a0,0x55555
    2c16:	55650513          	addi	a0,a0,1366 # 55555556 <_end+0x55550a52>
    2c1a:	8d0d                	sub	a0,a0,a1
    2c1c:	0aa0a623          	sw	a0,172(ra)

00002c20 <inst_556>:
    2c20:	333335b7          	lui	a1,0x33333
    2c24:	33458593          	addi	a1,a1,820 # 33333334 <_end+0x3332e830>
    2c28:	55555537          	lui	a0,0x55555
    2c2c:	55650513          	addi	a0,a0,1366 # 55555556 <_end+0x55550a52>
    2c30:	8d0d                	sub	a0,a0,a1
    2c32:	0aa0a823          	sw	a0,176(ra)

00002c36 <inst_557>:
    2c36:	666665b7          	lui	a1,0x66666
    2c3a:	66758593          	addi	a1,a1,1639 # 66666667 <_end+0x66661b63>
    2c3e:	55555537          	lui	a0,0x55555
    2c42:	55650513          	addi	a0,a0,1366 # 55555556 <_end+0x55550a52>
    2c46:	8d0d                	sub	a0,a0,a1
    2c48:	0aa0aa23          	sw	a0,180(ra)

00002c4c <inst_558>:
    2c4c:	ffff55b7          	lui	a1,0xffff5
    2c50:	afd58593          	addi	a1,a1,-1283 # ffff4afd <_end+0xfffefff9>
    2c54:	55555537          	lui	a0,0x55555
    2c58:	55650513          	addi	a0,a0,1366 # 55555556 <_end+0x55550a52>
    2c5c:	8d0d                	sub	a0,a0,a1
    2c5e:	0aa0ac23          	sw	a0,184(ra)

00002c62 <inst_559>:
    2c62:	0000b5b7          	lui	a1,0xb
    2c66:	50558593          	addi	a1,a1,1285 # b505 <_end+0x6a01>
    2c6a:	55555537          	lui	a0,0x55555
    2c6e:	55650513          	addi	a0,a0,1366 # 55555556 <_end+0x55550a52>
    2c72:	8d0d                	sub	a0,a0,a1
    2c74:	0aa0ae23          	sw	a0,188(ra)

00002c78 <inst_560>:
    2c78:	00300593          	li	a1,3
    2c7c:	aaaab537          	lui	a0,0xaaaab
    2c80:	aab50513          	addi	a0,a0,-1365 # aaaaaaab <_end+0xaaaa5fa7>
    2c84:	8d0d                	sub	a0,a0,a1
    2c86:	0ca0a023          	sw	a0,192(ra)

00002c8a <inst_561>:
    2c8a:	555555b7          	lui	a1,0x55555
    2c8e:	55558593          	addi	a1,a1,1365 # 55555555 <_end+0x55550a51>
    2c92:	aaaab537          	lui	a0,0xaaaab
    2c96:	aab50513          	addi	a0,a0,-1365 # aaaaaaab <_end+0xaaaa5fa7>
    2c9a:	8d0d                	sub	a0,a0,a1
    2c9c:	0ca0a223          	sw	a0,196(ra)

00002ca0 <inst_562>:
    2ca0:	aaaab5b7          	lui	a1,0xaaaab
    2ca4:	aaa58593          	addi	a1,a1,-1366 # aaaaaaaa <_end+0xaaaa5fa6>
    2ca8:	aaaab537          	lui	a0,0xaaaab
    2cac:	aab50513          	addi	a0,a0,-1365 # aaaaaaab <_end+0xaaaa5fa7>
    2cb0:	8d0d                	sub	a0,a0,a1
    2cb2:	0ca0a423          	sw	a0,200(ra)

00002cb6 <inst_563>:
    2cb6:	00500593          	li	a1,5
    2cba:	aaaab537          	lui	a0,0xaaaab
    2cbe:	aab50513          	addi	a0,a0,-1365 # aaaaaaab <_end+0xaaaa5fa7>
    2cc2:	8d0d                	sub	a0,a0,a1
    2cc4:	0ca0a623          	sw	a0,204(ra)

00002cc8 <inst_564>:
    2cc8:	333335b7          	lui	a1,0x33333
    2ccc:	33358593          	addi	a1,a1,819 # 33333333 <_end+0x3332e82f>
    2cd0:	aaaab537          	lui	a0,0xaaaab
    2cd4:	aab50513          	addi	a0,a0,-1365 # aaaaaaab <_end+0xaaaa5fa7>
    2cd8:	8d0d                	sub	a0,a0,a1
    2cda:	0ca0a823          	sw	a0,208(ra)

00002cde <inst_565>:
    2cde:	666665b7          	lui	a1,0x66666
    2ce2:	66658593          	addi	a1,a1,1638 # 66666666 <_end+0x66661b62>
    2ce6:	aaaab537          	lui	a0,0xaaaab
    2cea:	aab50513          	addi	a0,a0,-1365 # aaaaaaab <_end+0xaaaa5fa7>
    2cee:	8d0d                	sub	a0,a0,a1
    2cf0:	0ca0aa23          	sw	a0,212(ra)

00002cf4 <inst_566>:
    2cf4:	ffff55b7          	lui	a1,0xffff5
    2cf8:	afc58593          	addi	a1,a1,-1284 # ffff4afc <_end+0xfffefff8>
    2cfc:	aaaab537          	lui	a0,0xaaaab
    2d00:	aab50513          	addi	a0,a0,-1365 # aaaaaaab <_end+0xaaaa5fa7>
    2d04:	8d0d                	sub	a0,a0,a1
    2d06:	0ca0ac23          	sw	a0,216(ra)

00002d0a <inst_567>:
    2d0a:	0000b5b7          	lui	a1,0xb
    2d0e:	50458593          	addi	a1,a1,1284 # b504 <_end+0x6a00>
    2d12:	aaaab537          	lui	a0,0xaaaab
    2d16:	aab50513          	addi	a0,a0,-1365 # aaaaaaab <_end+0xaaaa5fa7>
    2d1a:	8d0d                	sub	a0,a0,a1
    2d1c:	0ca0ae23          	sw	a0,220(ra)

00002d20 <inst_568>:
    2d20:	00200593          	li	a1,2
    2d24:	aaaab537          	lui	a0,0xaaaab
    2d28:	aab50513          	addi	a0,a0,-1365 # aaaaaaab <_end+0xaaaa5fa7>
    2d2c:	8d0d                	sub	a0,a0,a1
    2d2e:	0ea0a023          	sw	a0,224(ra)

00002d32 <inst_569>:
    2d32:	555555b7          	lui	a1,0x55555
    2d36:	55458593          	addi	a1,a1,1364 # 55555554 <_end+0x55550a50>
    2d3a:	aaaab537          	lui	a0,0xaaaab
    2d3e:	aab50513          	addi	a0,a0,-1365 # aaaaaaab <_end+0xaaaa5fa7>
    2d42:	8d0d                	sub	a0,a0,a1
    2d44:	0ea0a223          	sw	a0,228(ra)

00002d48 <inst_570>:
    2d48:	00000593          	li	a1,0
    2d4c:	aaaab537          	lui	a0,0xaaaab
    2d50:	aab50513          	addi	a0,a0,-1365 # aaaaaaab <_end+0xaaaa5fa7>
    2d54:	8d0d                	sub	a0,a0,a1
    2d56:	0ea0a423          	sw	a0,232(ra)

00002d5a <inst_571>:
    2d5a:	00400593          	li	a1,4
    2d5e:	aaaab537          	lui	a0,0xaaaab
    2d62:	aab50513          	addi	a0,a0,-1365 # aaaaaaab <_end+0xaaaa5fa7>
    2d66:	8d0d                	sub	a0,a0,a1
    2d68:	0ea0a623          	sw	a0,236(ra)

00002d6c <inst_572>:
    2d6c:	333335b7          	lui	a1,0x33333
    2d70:	33258593          	addi	a1,a1,818 # 33333332 <_end+0x3332e82e>
    2d74:	aaaab537          	lui	a0,0xaaaab
    2d78:	aab50513          	addi	a0,a0,-1365 # aaaaaaab <_end+0xaaaa5fa7>
    2d7c:	8d0d                	sub	a0,a0,a1
    2d7e:	0ea0a823          	sw	a0,240(ra)

00002d82 <inst_573>:
    2d82:	666665b7          	lui	a1,0x66666
    2d86:	66558593          	addi	a1,a1,1637 # 66666665 <_end+0x66661b61>
    2d8a:	aaaab537          	lui	a0,0xaaaab
    2d8e:	aab50513          	addi	a0,a0,-1365 # aaaaaaab <_end+0xaaaa5fa7>
    2d92:	8d0d                	sub	a0,a0,a1
    2d94:	0ea0aa23          	sw	a0,244(ra)

00002d98 <inst_574>:
    2d98:	0000b5b7          	lui	a1,0xb
    2d9c:	50358593          	addi	a1,a1,1283 # b503 <_end+0x69ff>
    2da0:	aaaab537          	lui	a0,0xaaaab
    2da4:	aab50513          	addi	a0,a0,-1365 # aaaaaaab <_end+0xaaaa5fa7>
    2da8:	8d0d                	sub	a0,a0,a1
    2daa:	0ea0ac23          	sw	a0,248(ra)

00002dae <inst_575>:
    2dae:	555555b7          	lui	a1,0x55555
    2db2:	55658593          	addi	a1,a1,1366 # 55555556 <_end+0x55550a52>
    2db6:	aaaab537          	lui	a0,0xaaaab
    2dba:	aab50513          	addi	a0,a0,-1365 # aaaaaaab <_end+0xaaaa5fa7>
    2dbe:	8d0d                	sub	a0,a0,a1
    2dc0:	0ea0ae23          	sw	a0,252(ra)

00002dc4 <inst_576>:
    2dc4:	aaaab5b7          	lui	a1,0xaaaab
    2dc8:	aab58593          	addi	a1,a1,-1365 # aaaaaaab <_end+0xaaaa5fa7>
    2dcc:	aaaab537          	lui	a0,0xaaaab
    2dd0:	aab50513          	addi	a0,a0,-1365 # aaaaaaab <_end+0xaaaa5fa7>
    2dd4:	8d0d                	sub	a0,a0,a1
    2dd6:	10a0a023          	sw	a0,256(ra)

00002dda <inst_577>:
    2dda:	00600593          	li	a1,6
    2dde:	aaaab537          	lui	a0,0xaaaab
    2de2:	aab50513          	addi	a0,a0,-1365 # aaaaaaab <_end+0xaaaa5fa7>
    2de6:	8d0d                	sub	a0,a0,a1
    2de8:	10a0a223          	sw	a0,260(ra)

00002dec <inst_578>:
    2dec:	333335b7          	lui	a1,0x33333
    2df0:	33458593          	addi	a1,a1,820 # 33333334 <_end+0x3332e830>
    2df4:	aaaab537          	lui	a0,0xaaaab
    2df8:	aab50513          	addi	a0,a0,-1365 # aaaaaaab <_end+0xaaaa5fa7>
    2dfc:	8d0d                	sub	a0,a0,a1
    2dfe:	10a0a423          	sw	a0,264(ra)

00002e02 <inst_579>:
    2e02:	666665b7          	lui	a1,0x66666
    2e06:	66758593          	addi	a1,a1,1639 # 66666667 <_end+0x66661b63>
    2e0a:	aaaab537          	lui	a0,0xaaaab
    2e0e:	aab50513          	addi	a0,a0,-1365 # aaaaaaab <_end+0xaaaa5fa7>
    2e12:	8d0d                	sub	a0,a0,a1
    2e14:	10a0a623          	sw	a0,268(ra)

00002e18 <inst_580>:
    2e18:	00000593          	li	a1,0
    2e1c:	00040537          	lui	a0,0x40
    2e20:	8d0d                	sub	a0,a0,a1
    2e22:	10a0a823          	sw	a0,272(ra)
    2e26:	00000013          	nop
    2e2a:	00000013          	nop
    2e2e:	0001                	nop

00002e30 <rvtest_code_end>:
    2e30:	00001297          	auipc	t0,0x1
    2e34:	1e028293          	addi	t0,t0,480 # 4010 <begin_signature>
    2e38:	00020337          	lui	t1,0x20
    2e3c:	0311                	addi	t1,t1,4
    2e3e:	00532023          	sw	t0,0(t1) # 20000 <_end+0x1b4fc>
    2e42:	00002297          	auipc	t0,0x2
    2e46:	aee28293          	addi	t0,t0,-1298 # 4930 <end_signature>
    2e4a:	00020337          	lui	t1,0x20
    2e4e:	0321                	addi	t1,t1,8
    2e50:	00532023          	sw	t0,0(t1) # 20000 <_end+0x1b4fc>
    2e54:	4285                	li	t0,1
    2e56:	00020337          	lui	t1,0x20
    2e5a:	00532023          	sw	t0,0(t1) # 20000 <_end+0x1b4fc>
    2e5e:	0ff0000f          	fence
    2e62:	4185                	li	gp,1
    2e64:	00000073          	ecall
	...

Disassembly of section .tohost:

00003000 <tohost>:
	...

00003100 <fromhost>:
	...
